
/home/user/PugVDP/src/build/pugvdp/PugVDP.elf:     file format elf32-littlearm

Sections:
Idx Name          Size      VMA       LMA       File off  Algn
  0 .text         00004900  10000000  10000000  00001000  2**3
                  CONTENTS, ALLOC, LOAD, READONLY, CODE
  1 .rodata       00004618  10004900  10004900  00005900  2**2
                  CONTENTS, ALLOC, LOAD, READONLY, DATA
  2 .ARM.exidx    00000008  10008f18  10008f18  00009f18  2**2
                  CONTENTS, ALLOC, LOAD, READONLY, DATA
  3 .binary_info  0000001c  10008f20  10008f20  00009f20  2**2
                  CONTENTS, ALLOC, LOAD, READONLY, DATA
  4 .ram_vector_table 00000110  20000000  20000000  0000e000  2**2
                  ALLOC
  5 .uninitialized_data 00000000  20000110  20000110  0000d794  2**0
                  CONTENTS
  6 .data         00000f18  20000110  10008f3c  0000a110  2**3
                  CONTENTS, ALLOC, LOAD, READONLY, CODE
  7 .tdata        00000000  20001028  20001028  0000d794  2**0
                  CONTENTS, ALLOC, LOAD, DATA, THREAD_LOCAL
  8 .tbss         00000000  20001028  20001028  00000000  2**0
                  ALLOC, THREAD_LOCAL
  9 .bss          000084e4  20001028  10009e54  0000b028  2**3
                  ALLOC
 10 .heap         00000800  2000950c  10009e54  0000b50c  2**2
                  ALLOC, READONLY
 11 .scratch_x    0000092c  20080000  10009e54  0000c000  2**2
                  CONTENTS, ALLOC, LOAD, READONLY, CODE
 12 .scratch_y    00000000  20081000  20081000  0000d794  2**0
                  CONTENTS
 13 .stack1_dummy 00000200  2008092c  2008092c  0000d92c  2**2
                  ALLOC
 14 .stack_dummy  00000800  20081000  20081000  0000e000  2**5
                  ALLOC, READONLY
 15 .flash_end    00000014  1000a780  1000a780  0000d780  2**2
                  CONTENTS, ALLOC, LOAD, READONLY, DATA
 16 .ARM.attributes 00000034  00000000  00000000  0000d794  2**0
                  CONTENTS, READONLY
 17 .comment      00000026  00000000  00000000  0000d7c8  2**0
                  CONTENTS, READONLY
 18 .debug_info   00039b1e  00000000  00000000  0000d7ee  2**0
                  CONTENTS, READONLY, DEBUGGING, OCTETS
 19 .debug_abbrev 00009c51  00000000  00000000  0004730c  2**0
                  CONTENTS, READONLY, DEBUGGING, OCTETS
 20 .debug_loclists 0001abb9  00000000  00000000  00050f5d  2**0
                  CONTENTS, READONLY, DEBUGGING, OCTETS
 21 .debug_aranges 00001158  00000000  00000000  0006bb18  2**3
                  CONTENTS, READONLY, DEBUGGING, OCTETS
 22 .debug_rnglists 000051e8  00000000  00000000  0006cc70  2**0
                  CONTENTS, READONLY, DEBUGGING, OCTETS
 23 .debug_line   00020c94  00000000  00000000  00071e58  2**0
                  CONTENTS, READONLY, DEBUGGING, OCTETS
 24 .debug_str    000091e9  00000000  00000000  00092aec  2**0
                  CONTENTS, READONLY, DEBUGGING, OCTETS
 25 .debug_frame  00002ee8  00000000  00000000  0009bcd8  2**2
                  CONTENTS, READONLY, DEBUGGING, OCTETS
 26 .debug_line_str 00000126  00000000  00000000  0009ebc0  2**0
                  CONTENTS, READONLY, DEBUGGING, OCTETS

/home/user/PugVDP/src/build/pugvdp/PugVDP.elf:     file format elf32-littlearm


Disassembly of section .text:

10000000 <__VECTOR_TABLE>:
10000000:	20082000 	.word	0x20082000
10000004:	1000015d 	.word	0x1000015d
10000008:	1000011b 	.word	0x1000011b
1000000c:	1000011d 	.word	0x1000011d
10000010:	10000111 	.word	0x10000111
10000014:	10000111 	.word	0x10000111
10000018:	10000111 	.word	0x10000111
1000001c:	10000111 	.word	0x10000111
10000020:	10000119 	.word	0x10000119
10000024:	10000119 	.word	0x10000119
10000028:	10000119 	.word	0x10000119
1000002c:	1000011f 	.word	0x1000011f
10000030:	10000111 	.word	0x10000111
10000034:	10000119 	.word	0x10000119
10000038:	10000121 	.word	0x10000121
1000003c:	10000123 	.word	0x10000123
10000040:	10000111 	.word	0x10000111
10000044:	10000111 	.word	0x10000111
10000048:	10000111 	.word	0x10000111
1000004c:	10000111 	.word	0x10000111
10000050:	10000111 	.word	0x10000111
10000054:	10000111 	.word	0x10000111
10000058:	10000111 	.word	0x10000111
1000005c:	10000111 	.word	0x10000111
10000060:	10000111 	.word	0x10000111
10000064:	10000111 	.word	0x10000111
10000068:	10000111 	.word	0x10000111
1000006c:	10000111 	.word	0x10000111
10000070:	10000111 	.word	0x10000111
10000074:	10000111 	.word	0x10000111
10000078:	10000111 	.word	0x10000111
1000007c:	10000111 	.word	0x10000111
10000080:	10000111 	.word	0x10000111
10000084:	10000111 	.word	0x10000111
10000088:	10000111 	.word	0x10000111
1000008c:	10000111 	.word	0x10000111
10000090:	10000111 	.word	0x10000111
10000094:	10000111 	.word	0x10000111
10000098:	10000111 	.word	0x10000111
1000009c:	10000111 	.word	0x10000111
100000a0:	10000111 	.word	0x10000111
100000a4:	10000111 	.word	0x10000111
100000a8:	10000111 	.word	0x10000111
100000ac:	10000111 	.word	0x10000111
100000b0:	10000111 	.word	0x10000111
100000b4:	10000111 	.word	0x10000111
100000b8:	10000111 	.word	0x10000111
100000bc:	10000111 	.word	0x10000111
100000c0:	10000111 	.word	0x10000111
100000c4:	10000111 	.word	0x10000111
100000c8:	10000111 	.word	0x10000111
100000cc:	10000111 	.word	0x10000111
100000d0:	10000111 	.word	0x10000111
100000d4:	10000111 	.word	0x10000111
100000d8:	10000111 	.word	0x10000111
100000dc:	10000111 	.word	0x10000111
100000e0:	10000111 	.word	0x10000111
100000e4:	10000111 	.word	0x10000111
100000e8:	10000111 	.word	0x10000111
100000ec:	10000111 	.word	0x10000111
100000f0:	10000111 	.word	0x10000111
100000f4:	10000111 	.word	0x10000111
100000f8:	10000111 	.word	0x10000111
100000fc:	10000111 	.word	0x10000111
10000100:	10000111 	.word	0x10000111
10000104:	10000111 	.word	0x10000111
10000108:	10000111 	.word	0x10000111
1000010c:	10000111 	.word	0x10000111

10000110 <__unhandled_user_irq>:
10000110:	f3ef 8005 	mrs	r0, IPSR
10000114:	3810      	subs	r0, #16

10000116 <unhandled_user_irq_num_in_r0>:
10000116:	be00      	bkpt	0x0000

10000118 <isr_invalid>:
10000118:	be00      	bkpt	0x0000

1000011a <isr_nmi>:
1000011a:	be00      	bkpt	0x0000

1000011c <isr_hardfault>:
1000011c:	be00      	bkpt	0x0000

1000011e <isr_svcall>:
1000011e:	be00      	bkpt	0x0000

10000120 <isr_pendsv>:
10000120:	be00      	bkpt	0x0000

10000122 <isr_systick>:
10000122:	be00      	bkpt	0x0000

10000124 <__default_isrs_end>:
10000124:	7188ebf2 	.word	0x7188ebf2
10000128:	10008f20 	.word	0x10008f20
1000012c:	10008f3c 	.word	0x10008f3c
10000130:	100001a0 	.word	0x100001a0
10000134:	e71aa390 	.word	0xe71aa390

10000138 <__binary_info_header_end>:
10000138:	ffffded3 	.word	0xffffded3
1000013c:	10210142 	.word	0x10210142
10000140:	000001ff 	.word	0x000001ff
10000144:	0000a648 	.word	0x0000a648
10000148:	ab123579 	.word	0xab123579

1000014c <_entry_point>:
1000014c:	f04f 0000 	mov.w	r0, #0

10000150 <_enter_vtable_in_r0>:
10000150:	491e      	ldr	r1, [pc, #120]	@ (100001cc <data_cpy_table+0x2c>)
10000152:	6008      	str	r0, [r1, #0]
10000154:	c806      	ldmia	r0!, {r1, r2}
10000156:	f381 8808 	msr	MSP, r1
1000015a:	4710      	bx	r2

1000015c <_reset_handler>:
1000015c:	f04f 4050 	mov.w	r0, #3489660928	@ 0xd0000000
10000160:	6800      	ldr	r0, [r0, #0]
10000162:	b110      	cbz	r0, 1000016a <hold_non_core0_in_bootrom+0x6>

10000164 <hold_non_core0_in_bootrom>:
10000164:	f04f 0000 	mov.w	r0, #0
10000168:	e7f2      	b.n	10000150 <_enter_vtable_in_r0>
1000016a:	a40d      	add	r4, pc, #52	@ (adr r4, 100001a0 <data_cpy_table>)
1000016c:	cc0e      	ldmia	r4!, {r1, r2, r3}
1000016e:	2900      	cmp	r1, #0
10000170:	d002      	beq.n	10000178 <hold_non_core0_in_bootrom+0x14>
10000172:	f000 f812 	bl	1000019a <data_cpy>
10000176:	e7f9      	b.n	1000016c <hold_non_core0_in_bootrom+0x8>
10000178:	4915      	ldr	r1, [pc, #84]	@ (100001d0 <data_cpy_table+0x30>)
1000017a:	4a16      	ldr	r2, [pc, #88]	@ (100001d4 <data_cpy_table+0x34>)
1000017c:	2000      	movs	r0, #0
1000017e:	e000      	b.n	10000182 <bss_fill_test>

10000180 <bss_fill_loop>:
10000180:	c101      	stmia	r1!, {r0}

10000182 <bss_fill_test>:
10000182:	4291      	cmp	r1, r2
10000184:	d1fc      	bne.n	10000180 <bss_fill_loop>

10000186 <platform_entry>:
10000186:	4914      	ldr	r1, [pc, #80]	@ (100001d8 <data_cpy_table+0x38>)
10000188:	4788      	blx	r1
1000018a:	4914      	ldr	r1, [pc, #80]	@ (100001dc <data_cpy_table+0x3c>)
1000018c:	4788      	blx	r1
1000018e:	4914      	ldr	r1, [pc, #80]	@ (100001e0 <data_cpy_table+0x40>)
10000190:	4788      	blx	r1
10000192:	be00      	bkpt	0x0000
10000194:	e7fd      	b.n	10000192 <platform_entry+0xc>

10000196 <data_cpy_loop>:
10000196:	c901      	ldmia	r1!, {r0}
10000198:	c201      	stmia	r2!, {r0}

1000019a <data_cpy>:
1000019a:	429a      	cmp	r2, r3
1000019c:	d3fb      	bcc.n	10000196 <data_cpy_loop>
1000019e:	4770      	bx	lr

100001a0 <data_cpy_table>:
100001a0:	10008f3c 	.word	0x10008f3c
100001a4:	20000110 	.word	0x20000110
100001a8:	20001028 	.word	0x20001028
100001ac:	10009e54 	.word	0x10009e54
100001b0:	20080000 	.word	0x20080000
100001b4:	2008092c 	.word	0x2008092c
100001b8:	1000a780 	.word	0x1000a780
100001bc:	20081000 	.word	0x20081000
100001c0:	20081000 	.word	0x20081000
100001c4:	00000000 	.word	0x00000000
100001c8:	4770      	bx	lr
100001ca:	0000      	.short	0x0000
100001cc:	e000ed08 	.word	0xe000ed08
100001d0:	20001028 	.word	0x20001028
100001d4:	2000950c 	.word	0x2000950c
100001d8:	10002e45 	.word	0x10002e45
100001dc:	20000111 	.word	0x20000111
100001e0:	10002e3d 	.word	0x10002e3d

100001e4 <_init>:
100001e4:	b5f8      	push	{r3, r4, r5, r6, r7, lr}
100001e6:	bf00      	nop

100001e8 <deregister_tm_clones>:
100001e8:	4803      	ldr	r0, [pc, #12]	@ (100001f8 <deregister_tm_clones+0x10>)
100001ea:	4b04      	ldr	r3, [pc, #16]	@ (100001fc <deregister_tm_clones+0x14>)
100001ec:	4283      	cmp	r3, r0
100001ee:	d002      	beq.n	100001f6 <deregister_tm_clones+0xe>
100001f0:	4b03      	ldr	r3, [pc, #12]	@ (10000200 <deregister_tm_clones+0x18>)
100001f2:	b103      	cbz	r3, 100001f6 <deregister_tm_clones+0xe>
100001f4:	4718      	bx	r3
100001f6:	4770      	bx	lr
100001f8:	20001028 	.word	0x20001028
100001fc:	20001028 	.word	0x20001028
10000200:	00000000 	.word	0x00000000

10000204 <register_tm_clones>:
10000204:	4b06      	ldr	r3, [pc, #24]	@ (10000220 <register_tm_clones+0x1c>)
10000206:	4907      	ldr	r1, [pc, #28]	@ (10000224 <register_tm_clones+0x20>)
10000208:	1ac9      	subs	r1, r1, r3
1000020a:	1089      	asrs	r1, r1, #2
1000020c:	bf48      	it	mi
1000020e:	3101      	addmi	r1, #1
10000210:	1049      	asrs	r1, r1, #1
10000212:	d003      	beq.n	1000021c <register_tm_clones+0x18>
10000214:	4b04      	ldr	r3, [pc, #16]	@ (10000228 <register_tm_clones+0x24>)
10000216:	b10b      	cbz	r3, 1000021c <register_tm_clones+0x18>
10000218:	4801      	ldr	r0, [pc, #4]	@ (10000220 <register_tm_clones+0x1c>)
1000021a:	4718      	bx	r3
1000021c:	4770      	bx	lr
1000021e:	bf00      	nop
10000220:	20001028 	.word	0x20001028
10000224:	20001028 	.word	0x20001028
10000228:	00000000 	.word	0x00000000

1000022c <__do_global_dtors_aux>:
1000022c:	b510      	push	{r4, lr}
1000022e:	4c06      	ldr	r4, [pc, #24]	@ (10000248 <__do_global_dtors_aux+0x1c>)
10000230:	7823      	ldrb	r3, [r4, #0]
10000232:	b943      	cbnz	r3, 10000246 <__do_global_dtors_aux+0x1a>
10000234:	f7ff ffd8 	bl	100001e8 <deregister_tm_clones>
10000238:	4b04      	ldr	r3, [pc, #16]	@ (1000024c <__do_global_dtors_aux+0x20>)
1000023a:	b113      	cbz	r3, 10000242 <__do_global_dtors_aux+0x16>
1000023c:	4804      	ldr	r0, [pc, #16]	@ (10000250 <__do_global_dtors_aux+0x24>)
1000023e:	f3af 8000 	nop.w
10000242:	2301      	movs	r3, #1
10000244:	7023      	strb	r3, [r4, #0]
10000246:	bd10      	pop	{r4, pc}
10000248:	2000145c 	.word	0x2000145c
1000024c:	00000000 	.word	0x00000000
10000250:	10004900 	.word	0x10004900

10000254 <frame_dummy>:
10000254:	b508      	push	{r3, lr}
10000256:	4b04      	ldr	r3, [pc, #16]	@ (10000268 <frame_dummy+0x14>)
10000258:	b11b      	cbz	r3, 10000262 <frame_dummy+0xe>
1000025a:	4904      	ldr	r1, [pc, #16]	@ (1000026c <frame_dummy+0x18>)
1000025c:	4804      	ldr	r0, [pc, #16]	@ (10000270 <frame_dummy+0x1c>)
1000025e:	f3af 8000 	nop.w
10000262:	e8bd 4008 	ldmia.w	sp!, {r3, lr}
10000266:	e7cd      	b.n	10000204 <register_tm_clones>
10000268:	00000000 	.word	0x00000000
1000026c:	20001460 	.word	0x20001460
10000270:	10004900 	.word	0x10004900

10000274 <command_init>:
10000274:	4b04      	ldr	r3, [pc, #16]	@ (10000288 <command_init+0x14>)
10000276:	b410      	push	{r4}
10000278:	4c04      	ldr	r4, [pc, #16]	@ (1000028c <command_init+0x18>)
1000027a:	5419      	strb	r1, [r3, r0]
1000027c:	f844 2020 	str.w	r2, [r4, r0, lsl #2]
10000280:	f85d 4b04 	ldr.w	r4, [sp], #4
10000284:	4770      	bx	lr
10000286:	bf00      	nop
10000288:	200055f8 	.word	0x200055f8
1000028c:	200051f8 	.word	0x200051f8

10000290 <command_select>:
10000290:	4b11      	ldr	r3, [pc, #68]	@ (100002d8 <command_select+0x48>)
10000292:	b510      	push	{r4, lr}
10000294:	f853 3020 	ldr.w	r3, [r3, r0, lsl #2]
10000298:	b18b      	cbz	r3, 100002be <command_select+0x2e>
1000029a:	2201      	movs	r2, #1
1000029c:	4c0f      	ldr	r4, [pc, #60]	@ (100002dc <command_select+0x4c>)
1000029e:	4910      	ldr	r1, [pc, #64]	@ (100002e0 <command_select+0x50>)
100002a0:	8020      	strh	r0, [r4, #0]
100002a2:	4c10      	ldr	r4, [pc, #64]	@ (100002e4 <command_select+0x54>)
100002a4:	5c09      	ldrb	r1, [r1, r0]
100002a6:	6023      	str	r3, [r4, #0]
100002a8:	480f      	ldr	r0, [pc, #60]	@ (100002e8 <command_select+0x58>)
100002aa:	4c10      	ldr	r4, [pc, #64]	@ (100002ec <command_select+0x5c>)
100002ac:	7002      	strb	r2, [r0, #0]
100002ae:	7021      	strb	r1, [r4, #0]
100002b0:	b909      	cbnz	r1, 100002b6 <command_select+0x26>
100002b2:	4608      	mov	r0, r1
100002b4:	4798      	blx	r3
100002b6:	2200      	movs	r2, #0
100002b8:	4b0d      	ldr	r3, [pc, #52]	@ (100002f0 <command_select+0x60>)
100002ba:	601a      	str	r2, [r3, #0]
100002bc:	bd10      	pop	{r4, pc}
100002be:	f64f 71ff 	movw	r1, #65535	@ 0xffff
100002c2:	4a06      	ldr	r2, [pc, #24]	@ (100002dc <command_select+0x4c>)
100002c4:	4c07      	ldr	r4, [pc, #28]	@ (100002e4 <command_select+0x54>)
100002c6:	8011      	strh	r1, [r2, #0]
100002c8:	2200      	movs	r2, #0
100002ca:	4808      	ldr	r0, [pc, #32]	@ (100002ec <command_select+0x5c>)
100002cc:	6023      	str	r3, [r4, #0]
100002ce:	7003      	strb	r3, [r0, #0]
100002d0:	4b07      	ldr	r3, [pc, #28]	@ (100002f0 <command_select+0x60>)
100002d2:	601a      	str	r2, [r3, #0]
100002d4:	bd10      	pop	{r4, pc}
100002d6:	bf00      	nop
100002d8:	200051f8 	.word	0x200051f8
100002dc:	20000ab2 	.word	0x20000ab2
100002e0:	200055f8 	.word	0x200055f8
100002e4:	20006f68 	.word	0x20006f68
100002e8:	20000ab0 	.word	0x20000ab0
100002ec:	200094fb 	.word	0x200094fb
100002f0:	200019b4 	.word	0x200019b4

100002f4 <data_receive>:
100002f4:	e92d 4ff8 	stmdb	sp!, {r3, r4, r5, r6, r7, r8, r9, sl, fp, lr}
100002f8:	460f      	mov	r7, r1
100002fa:	f8df b114 	ldr.w	fp, [pc, #276]	@ 10000410 <data_receive+0x11c>
100002fe:	f89b 1000 	ldrb.w	r1, [fp]
10000302:	2f00      	cmp	r7, #0
10000304:	d075      	beq.n	100003f2 <data_receive+0xfe>
10000306:	4680      	mov	r8, r0
10000308:	2400      	movs	r4, #0
1000030a:	f8df 9100 	ldr.w	r9, [pc, #256]	@ 1000040c <data_receive+0x118>
1000030e:	4e3a      	ldr	r6, [pc, #232]	@ (100003f8 <data_receive+0x104>)
10000310:	f8df a100 	ldr.w	sl, [pc, #256]	@ 10000414 <data_receive+0x120>
10000314:	e00b      	b.n	1000032e <data_receive+0x3a>
10000316:	f8d9 3000 	ldr.w	r3, [r9]
1000031a:	2b00      	cmp	r3, #0
1000031c:	d059      	beq.n	100003d2 <data_receive+0xde>
1000031e:	6833      	ldr	r3, [r6, #0]
10000320:	4a36      	ldr	r2, [pc, #216]	@ (100003fc <data_receive+0x108>)
10000322:	54d5      	strb	r5, [r2, r3]
10000324:	3301      	adds	r3, #1
10000326:	6033      	str	r3, [r6, #0]
10000328:	3401      	adds	r4, #1
1000032a:	42a7      	cmp	r7, r4
1000032c:	d02c      	beq.n	10000388 <data_receive+0x94>
1000032e:	b2e3      	uxtb	r3, r4
10000330:	f838 3013 	ldrh.w	r3, [r8, r3, lsl #1]
10000334:	b2dd      	uxtb	r5, r3
10000336:	05db      	lsls	r3, r3, #23
10000338:	d4ed      	bmi.n	10000316 <data_receive+0x22>
1000033a:	6833      	ldr	r3, [r6, #0]
1000033c:	2900      	cmp	r1, #0
1000033e:	d034      	beq.n	100003aa <data_receive+0xb6>
10000340:	4a2f      	ldr	r2, [pc, #188]	@ (10000400 <data_receive+0x10c>)
10000342:	7812      	ldrb	r2, [r2, #0]
10000344:	2a00      	cmp	r2, #0
10000346:	d046      	beq.n	100003d6 <data_receive+0xe2>
10000348:	4299      	cmp	r1, r3
1000034a:	d804      	bhi.n	10000356 <data_receive+0x62>
1000034c:	b299      	uxth	r1, r3
1000034e:	482b      	ldr	r0, [pc, #172]	@ (100003fc <data_receive+0x108>)
10000350:	f8d9 3000 	ldr.w	r3, [r9]
10000354:	4798      	blx	r3
10000356:	f85a 3025 	ldr.w	r3, [sl, r5, lsl #2]
1000035a:	2b00      	cmp	r3, #0
1000035c:	d02f      	beq.n	100003be <data_receive+0xca>
1000035e:	4a29      	ldr	r2, [pc, #164]	@ (10000404 <data_receive+0x110>)
10000360:	4927      	ldr	r1, [pc, #156]	@ (10000400 <data_receive+0x10c>)
10000362:	8015      	strh	r5, [r2, #0]
10000364:	2201      	movs	r2, #1
10000366:	700a      	strb	r2, [r1, #0]
10000368:	4927      	ldr	r1, [pc, #156]	@ (10000408 <data_receive+0x114>)
1000036a:	f8c9 3000 	str.w	r3, [r9]
1000036e:	5d49      	ldrb	r1, [r1, r5]
10000370:	f88b 1000 	strb.w	r1, [fp]
10000374:	b919      	cbnz	r1, 1000037e <data_receive+0x8a>
10000376:	4608      	mov	r0, r1
10000378:	4798      	blx	r3
1000037a:	f89b 1000 	ldrb.w	r1, [fp]
1000037e:	2300      	movs	r3, #0
10000380:	3401      	adds	r4, #1
10000382:	42a7      	cmp	r7, r4
10000384:	6033      	str	r3, [r6, #0]
10000386:	d1d2      	bne.n	1000032e <data_receive+0x3a>
10000388:	b341      	cbz	r1, 100003dc <data_receive+0xe8>
1000038a:	4c1d      	ldr	r4, [pc, #116]	@ (10000400 <data_receive+0x10c>)
1000038c:	7822      	ldrb	r2, [r4, #0]
1000038e:	2a00      	cmp	r2, #0
10000390:	d02c      	beq.n	100003ec <data_receive+0xf8>
10000392:	4299      	cmp	r1, r3
10000394:	d807      	bhi.n	100003a6 <data_receive+0xb2>
10000396:	491d      	ldr	r1, [pc, #116]	@ (1000040c <data_receive+0x118>)
10000398:	4818      	ldr	r0, [pc, #96]	@ (100003fc <data_receive+0x108>)
1000039a:	680d      	ldr	r5, [r1, #0]
1000039c:	b299      	uxth	r1, r3
1000039e:	47a8      	blx	r5
100003a0:	2300      	movs	r3, #0
100003a2:	7023      	strb	r3, [r4, #0]
100003a4:	6033      	str	r3, [r6, #0]
100003a6:	e8bd 8ff8 	ldmia.w	sp!, {r3, r4, r5, r6, r7, r8, r9, sl, fp, pc}
100003aa:	2b00      	cmp	r3, #0
100003ac:	d0d3      	beq.n	10000356 <data_receive+0x62>
100003ae:	4a14      	ldr	r2, [pc, #80]	@ (10000400 <data_receive+0x10c>)
100003b0:	7812      	ldrb	r2, [r2, #0]
100003b2:	2a00      	cmp	r2, #0
100003b4:	d0ca      	beq.n	1000034c <data_receive+0x58>
100003b6:	f85a 3025 	ldr.w	r3, [sl, r5, lsl #2]
100003ba:	2b00      	cmp	r3, #0
100003bc:	d1cf      	bne.n	1000035e <data_receive+0x6a>
100003be:	f64f 72ff 	movw	r2, #65535	@ 0xffff
100003c2:	4619      	mov	r1, r3
100003c4:	f8c9 3000 	str.w	r3, [r9]
100003c8:	f88b 3000 	strb.w	r3, [fp]
100003cc:	4b0d      	ldr	r3, [pc, #52]	@ (10000404 <data_receive+0x110>)
100003ce:	801a      	strh	r2, [r3, #0]
100003d0:	e7d5      	b.n	1000037e <data_receive+0x8a>
100003d2:	6033      	str	r3, [r6, #0]
100003d4:	e7a8      	b.n	10000328 <data_receive+0x34>
100003d6:	2b00      	cmp	r3, #0
100003d8:	d1b8      	bne.n	1000034c <data_receive+0x58>
100003da:	e7bc      	b.n	10000356 <data_receive+0x62>
100003dc:	2b00      	cmp	r3, #0
100003de:	d0e2      	beq.n	100003a6 <data_receive+0xb2>
100003e0:	4c07      	ldr	r4, [pc, #28]	@ (10000400 <data_receive+0x10c>)
100003e2:	7822      	ldrb	r2, [r4, #0]
100003e4:	2a00      	cmp	r2, #0
100003e6:	d0d6      	beq.n	10000396 <data_receive+0xa2>
100003e8:	e8bd 8ff8 	ldmia.w	sp!, {r3, r4, r5, r6, r7, r8, r9, sl, fp, pc}
100003ec:	2b00      	cmp	r3, #0
100003ee:	d1d2      	bne.n	10000396 <data_receive+0xa2>
100003f0:	e7d9      	b.n	100003a6 <data_receive+0xb2>
100003f2:	4e01      	ldr	r6, [pc, #4]	@ (100003f8 <data_receive+0x104>)
100003f4:	6833      	ldr	r3, [r6, #0]
100003f6:	e7c7      	b.n	10000388 <data_receive+0x94>
100003f8:	200019b4 	.word	0x200019b4
100003fc:	200017ac 	.word	0x200017ac
10000400:	20000ab0 	.word	0x20000ab0
10000404:	20000ab2 	.word	0x20000ab2
10000408:	200055f8 	.word	0x200055f8
1000040c:	20006f68 	.word	0x20006f68
10000410:	200094fb 	.word	0x200094fb
10000414:	200051f8 	.word	0x200051f8

10000418 <rgb_gbr>:
10000418:	0083      	lsls	r3, r0, #2
1000041a:	461a      	mov	r2, r3
1000041c:	f003 0330 	and.w	r3, r3, #48	@ 0x30
10000420:	f002 020c 	and.w	r2, r2, #12
10000424:	4313      	orrs	r3, r2
10000426:	f3c0 1001 	ubfx	r0, r0, #4, #2
1000042a:	4318      	orrs	r0, r3
1000042c:	4770      	bx	lr
1000042e:	bf00      	nop

10000430 <pio_irq_handler>:
10000430:	b5f0      	push	{r4, r5, r6, r7, lr}
10000432:	2380      	movs	r3, #128	@ 0x80
10000434:	ee20 3010 	gpioc_lo_out_xor r3
10000438:	2301      	movs	r3, #1
1000043a:	2500      	movs	r5, #0
1000043c:	f06f 4e00 	mvn.w	lr, #2147483648	@ 0x80000000
10000440:	4a10      	ldr	r2, [pc, #64]	@ (10000484 <pio_irq_handler+0x54>)
10000442:	4f11      	ldr	r7, [pc, #68]	@ (10000488 <pio_irq_handler+0x58>)
10000444:	6814      	ldr	r4, [r2, #0]
10000446:	6839      	ldr	r1, [r7, #0]
10000448:	4e10      	ldr	r6, [pc, #64]	@ (1000048c <pio_irq_handler+0x5c>)
1000044a:	6323      	str	r3, [r4, #48]	@ 0x30
1000044c:	eb01 000e 	add.w	r0, r1, lr
10000450:	eb06 0040 	add.w	r0, r6, r0, lsl #1
10000454:	e00d      	b.n	10000472 <pio_irq_handler+0x42>
10000456:	6a23      	ldr	r3, [r4, #32]
10000458:	3101      	adds	r1, #1
1000045a:	f3c3 5cc0 	ubfx	ip, r3, #23, #1
1000045e:	0e1b      	lsrs	r3, r3, #24
10000460:	ea43 230c 	orr.w	r3, r3, ip, lsl #8
10000464:	f5b1 7f00 	cmp.w	r1, #512	@ 0x200
10000468:	f04f 0501 	mov.w	r5, #1
1000046c:	f820 3f02 	strh.w	r3, [r0, #2]!
10000470:	d206      	bcs.n	10000480 <pio_irq_handler+0x50>
10000472:	6862      	ldr	r2, [r4, #4]
10000474:	f412 7280 	ands.w	r2, r2, #256	@ 0x100
10000478:	d0ed      	beq.n	10000456 <pio_irq_handler+0x26>
1000047a:	b105      	cbz	r5, 1000047e <pio_irq_handler+0x4e>
1000047c:	6039      	str	r1, [r7, #0]
1000047e:	bdf0      	pop	{r4, r5, r6, r7, pc}
10000480:	4611      	mov	r1, r2
10000482:	e7e3      	b.n	1000044c <pio_irq_handler+0x1c>
10000484:	20000ab4 	.word	0x20000ab4
10000488:	20005f2c 	.word	0x20005f2c
1000048c:	20005b2c 	.word	0x20005b2c

10000490 <core1_main>:
10000490:	b508      	push	{r3, lr}
10000492:	210a      	movs	r1, #10
10000494:	4807      	ldr	r0, [pc, #28]	@ (100004b4 <core1_main+0x24>)
10000496:	4c08      	ldr	r4, [pc, #32]	@ (100004b8 <core1_main+0x28>)
10000498:	f002 ff42 	bl	10003320 <dvi_register_irqs_this_core>
1000049c:	4805      	ldr	r0, [pc, #20]	@ (100004b4 <core1_main+0x24>)
1000049e:	f002 ff93 	bl	100033c8 <dvi_start>
100004a2:	7823      	ldrb	r3, [r4, #0]
100004a4:	b103      	cbz	r3, 100004a8 <core1_main+0x18>
100004a6:	e7fe      	b.n	100004a6 <core1_main+0x16>
100004a8:	f001 f806 	bl	100014b8 <text_rasterize_screen>
100004ac:	7823      	ldrb	r3, [r4, #0]
100004ae:	2b00      	cmp	r3, #0
100004b0:	d0fa      	beq.n	100004a8 <core1_main+0x18>
100004b2:	e7f8      	b.n	100004a6 <core1_main+0x16>
100004b4:	200011a8 	.word	0x200011a8
100004b8:	2000950a 	.word	0x2000950a

100004bc <bus_interface_program_init>:
100004bc:	e92d 41f0 	stmdb	sp!, {r4, r5, r6, r7, r8, lr}
100004c0:	4616      	mov	r6, r2
100004c2:	2400      	movs	r4, #0
100004c4:	461a      	mov	r2, r3
100004c6:	f44f 2340 	mov.w	r3, #786432	@ 0xc0000
100004ca:	f44f 3880 	mov.w	r8, #65536	@ 0x10000
100004ce:	4605      	mov	r5, r0
100004d0:	460f      	mov	r7, r1
100004d2:	b086      	sub	sp, #24
100004d4:	9400      	str	r4, [sp, #0]
100004d6:	9304      	str	r3, [sp, #16]
100004d8:	01f4      	lsls	r4, r6, #7
100004da:	1d73      	adds	r3, r6, #5
100004dc:	ea44 3403 	orr.w	r4, r4, r3, lsl #12
100004e0:	f024 44c0 	bic.w	r4, r4, #1610612736	@ 0x60000000
100004e4:	f044 4480 	orr.w	r4, r4, #1073741824	@ 0x40000000
100004e8:	9403      	str	r4, [sp, #12]
100004ea:	03d4      	lsls	r4, r2, #15
100004ec:	f404 2478 	and.w	r4, r4, #1015808	@ 0xf8000
100004f0:	230a      	movs	r3, #10
100004f2:	f044 5400 	orr.w	r4, r4, #536870912	@ 0x20000000
100004f6:	f8cd 8008 	str.w	r8, [sp, #8]
100004fa:	9405      	str	r4, [sp, #20]
100004fc:	f003 fb6e 	bl	10003bdc <pio_sm_set_consecutive_pindirs>
10000500:	9b04      	ldr	r3, [sp, #16]
10000502:	4639      	mov	r1, r7
10000504:	f023 23c0 	bic.w	r3, r3, #3221274624	@ 0xc000c000
10000508:	f043 4300 	orr.w	r3, r3, #2147483648	@ 0x80000000
1000050c:	9304      	str	r3, [sp, #16]
1000050e:	4632      	mov	r2, r6
10000510:	ab02      	add	r3, sp, #8
10000512:	4628      	mov	r0, r5
10000514:	f8cd 8008 	str.w	r8, [sp, #8]
10000518:	f003 fba6 	bl	10003c68 <pio_sm_init>
1000051c:	2101      	movs	r1, #1
1000051e:	682b      	ldr	r3, [r5, #0]
10000520:	40b9      	lsls	r1, r7
10000522:	4319      	orrs	r1, r3
10000524:	6029      	str	r1, [r5, #0]
10000526:	b006      	add	sp, #24
10000528:	e8bd 81f0 	ldmia.w	sp!, {r4, r5, r6, r7, r8, pc}

1000052c <text_gotoxy>:
1000052c:	2901      	cmp	r1, #1
1000052e:	d914      	bls.n	1000055a <text_gotoxy+0x2e>
10000530:	4a0a      	ldr	r2, [pc, #40]	@ (1000055c <text_gotoxy+0x30>)
10000532:	7803      	ldrb	r3, [r0, #0]
10000534:	7812      	ldrb	r2, [r2, #0]
10000536:	429a      	cmp	r2, r3
10000538:	d90f      	bls.n	1000055a <text_gotoxy+0x2e>
1000053a:	4909      	ldr	r1, [pc, #36]	@ (10000560 <text_gotoxy+0x34>)
1000053c:	7842      	ldrb	r2, [r0, #1]
1000053e:	7809      	ldrb	r1, [r1, #0]
10000540:	4291      	cmp	r1, r2
10000542:	d90a      	bls.n	1000055a <text_gotoxy+0x2e>
10000544:	4907      	ldr	r1, [pc, #28]	@ (10000564 <text_gotoxy+0x38>)
10000546:	4808      	ldr	r0, [pc, #32]	@ (10000568 <text_gotoxy+0x3c>)
10000548:	7809      	ldrb	r1, [r1, #0]
1000054a:	f890 c000 	ldrb.w	ip, [r0]
1000054e:	440b      	add	r3, r1
10000550:	4806      	ldr	r0, [pc, #24]	@ (1000056c <text_gotoxy+0x40>)
10000552:	4907      	ldr	r1, [pc, #28]	@ (10000570 <text_gotoxy+0x44>)
10000554:	4462      	add	r2, ip
10000556:	7003      	strb	r3, [r0, #0]
10000558:	700a      	strb	r2, [r1, #0]
1000055a:	4770      	bx	lr
1000055c:	20000abb 	.word	0x20000abb
10000560:	20000aba 	.word	0x20000aba
10000564:	200094fc 	.word	0x200094fc
10000568:	200094fd 	.word	0x200094fd
1000056c:	20009506 	.word	0x20009506
10000570:	20009507 	.word	0x20009507

10000574 <text_set_tab>:
10000574:	b111      	cbz	r1, 1000057c <text_set_tab+0x8>
10000576:	7802      	ldrb	r2, [r0, #0]
10000578:	4b01      	ldr	r3, [pc, #4]	@ (10000580 <text_set_tab+0xc>)
1000057a:	701a      	strb	r2, [r3, #0]
1000057c:	4770      	bx	lr
1000057e:	bf00      	nop
10000580:	20000abf 	.word	0x20000abf

10000584 <text_set_cursor_size>:
10000584:	7802      	ldrb	r2, [r0, #0]
10000586:	f002 030f 	and.w	r3, r2, #15
1000058a:	ebb3 1f12 	cmp.w	r3, r2, lsr #4
1000058e:	ea4f 1112 	mov.w	r1, r2, lsr #4
10000592:	d902      	bls.n	1000059a <text_set_cursor_size+0x16>
10000594:	461a      	mov	r2, r3
10000596:	460b      	mov	r3, r1
10000598:	4611      	mov	r1, r2
1000059a:	4802      	ldr	r0, [pc, #8]	@ (100005a4 <text_set_cursor_size+0x20>)
1000059c:	4a02      	ldr	r2, [pc, #8]	@ (100005a8 <text_set_cursor_size+0x24>)
1000059e:	7001      	strb	r1, [r0, #0]
100005a0:	7013      	strb	r3, [r2, #0]
100005a2:	4770      	bx	lr
100005a4:	20009505 	.word	0x20009505
100005a8:	20009504 	.word	0x20009504

100005ac <text_cursor_set_vis>:
100005ac:	7803      	ldrb	r3, [r0, #0]
100005ae:	4a03      	ldr	r2, [pc, #12]	@ (100005bc <text_cursor_set_vis+0x10>)
100005b0:	3b00      	subs	r3, #0
100005b2:	bf18      	it	ne
100005b4:	2301      	movne	r3, #1
100005b6:	7013      	strb	r3, [r2, #0]
100005b8:	4770      	bx	lr
100005ba:	bf00      	nop
100005bc:	20000abe 	.word	0x20000abe

100005c0 <text_area_define>:
100005c0:	b4f0      	push	{r4, r5, r6, r7}
100005c2:	7803      	ldrb	r3, [r0, #0]
100005c4:	4f09      	ldr	r7, [pc, #36]	@ (100005ec <text_area_define+0x2c>)
100005c6:	4e0a      	ldr	r6, [pc, #40]	@ (100005f0 <text_area_define+0x30>)
100005c8:	4d0a      	ldr	r5, [pc, #40]	@ (100005f4 <text_area_define+0x34>)
100005ca:	4c0b      	ldr	r4, [pc, #44]	@ (100005f8 <text_area_define+0x38>)
100005cc:	703b      	strb	r3, [r7, #0]
100005ce:	7033      	strb	r3, [r6, #0]
100005d0:	7843      	ldrb	r3, [r0, #1]
100005d2:	490a      	ldr	r1, [pc, #40]	@ (100005fc <text_area_define+0x3c>)
100005d4:	702b      	strb	r3, [r5, #0]
100005d6:	7023      	strb	r3, [r4, #0]
100005d8:	4a09      	ldr	r2, [pc, #36]	@ (10000600 <text_area_define+0x40>)
100005da:	f890 c002 	ldrb.w	ip, [r0, #2]
100005de:	78c3      	ldrb	r3, [r0, #3]
100005e0:	f881 c000 	strb.w	ip, [r1]
100005e4:	7013      	strb	r3, [r2, #0]
100005e6:	bcf0      	pop	{r4, r5, r6, r7}
100005e8:	4770      	bx	lr
100005ea:	bf00      	nop
100005ec:	200094fc 	.word	0x200094fc
100005f0:	20009506 	.word	0x20009506
100005f4:	200094fd 	.word	0x200094fd
100005f8:	20009507 	.word	0x20009507
100005fc:	20000abb 	.word	0x20000abb
10000600:	20000aba 	.word	0x20000aba

10000604 <text_color_set>:
10000604:	f890 c000 	ldrb.w	ip, [r0]
10000608:	4903      	ldr	r1, [pc, #12]	@ (10000618 <text_color_set+0x14>)
1000060a:	4b04      	ldr	r3, [pc, #16]	@ (1000061c <text_color_set+0x18>)
1000060c:	7842      	ldrb	r2, [r0, #1]
1000060e:	f881 c000 	strb.w	ip, [r1]
10000612:	701a      	strb	r2, [r3, #0]
10000614:	4770      	bx	lr
10000616:	bf00      	nop
10000618:	20000ab9 	.word	0x20000ab9
1000061c:	20000ab8 	.word	0x20000ab8

10000620 <text_cursor_set_blink>:
10000620:	4b01      	ldr	r3, [pc, #4]	@ (10000628 <text_cursor_set_blink+0x8>)
10000622:	7802      	ldrb	r2, [r0, #0]
10000624:	701a      	strb	r2, [r3, #0]
10000626:	4770      	bx	lr
10000628:	20000abd 	.word	0x20000abd

1000062c <text_font_set>:
1000062c:	e92d 4ff0 	stmdb	sp!, {r4, r5, r6, r7, r8, r9, sl, fp, lr}
10000630:	b152      	cbz	r2, 10000648 <text_font_set+0x1c>
10000632:	2400      	movs	r4, #0
10000634:	f810 3b01 	ldrb.w	r3, [r0], #1
10000638:	4f1a      	ldr	r7, [pc, #104]	@ (100006a4 <text_font_set+0x78>)
1000063a:	4a1b      	ldr	r2, [pc, #108]	@ (100006a8 <text_font_set+0x7c>)
1000063c:	4d1b      	ldr	r5, [pc, #108]	@ (100006ac <text_font_set+0x80>)
1000063e:	3901      	subs	r1, #1
10000640:	443b      	add	r3, r7
10000642:	b289      	uxth	r1, r1
10000644:	702c      	strb	r4, [r5, #0]
10000646:	6013      	str	r3, [r2, #0]
10000648:	b349      	cbz	r1, 1000069e <text_font_set+0x72>
1000064a:	f04f 0900 	mov.w	r9, #0
1000064e:	4c16      	ldr	r4, [pc, #88]	@ (100006a8 <text_font_set+0x7c>)
10000650:	4f14      	ldr	r7, [pc, #80]	@ (100006a4 <text_font_set+0x78>)
10000652:	6822      	ldr	r2, [r4, #0]
10000654:	4d15      	ldr	r5, [pc, #84]	@ (100006ac <text_font_set+0x80>)
10000656:	f8df 8058 	ldr.w	r8, [pc, #88]	@ 100006b0 <text_font_set+0x84>
1000065a:	f8df e058 	ldr.w	lr, [pc, #88]	@ 100006b4 <text_font_set+0x88>
1000065e:	eb00 0c01 	add.w	ip, r0, r1
10000662:	f810 3b01 	ldrb.w	r3, [r0], #1
10000666:	7013      	strb	r3, [r2, #0]
10000668:	782b      	ldrb	r3, [r5, #0]
1000066a:	6826      	ldr	r6, [r4, #0]
1000066c:	f898 a000 	ldrb.w	sl, [r8]
10000670:	3301      	adds	r3, #1
10000672:	b2db      	uxtb	r3, r3
10000674:	f8be 1000 	ldrh.w	r1, [lr]
10000678:	f506 7280 	add.w	r2, r6, #256	@ 0x100
1000067c:	459a      	cmp	sl, r3
1000067e:	eb07 0b01 	add.w	fp, r7, r1
10000682:	6022      	str	r2, [r4, #0]
10000684:	702b      	strb	r3, [r5, #0]
10000686:	d804      	bhi.n	10000692 <text_font_set+0x66>
10000688:	f206 1201 	addw	r2, r6, #257	@ 0x101
1000068c:	6022      	str	r2, [r4, #0]
1000068e:	f885 9000 	strb.w	r9, [r5]
10000692:	455a      	cmp	r2, fp
10000694:	bf24      	itt	cs
10000696:	1a52      	subcs	r2, r2, r1
10000698:	6022      	strcs	r2, [r4, #0]
1000069a:	4584      	cmp	ip, r0
1000069c:	d1e1      	bne.n	10000662 <text_font_set+0x36>
1000069e:	e8bd 8ff0 	ldmia.w	sp!, {r4, r5, r6, r7, r8, r9, sl, fp, pc}
100006a2:	bf00      	nop
100006a4:	20005f38 	.word	0x20005f38
100006a8:	20000ac0 	.word	0x20000ac0
100006ac:	200094fa 	.word	0x200094fa
100006b0:	20009508 	.word	0x20009508
100006b4:	200094f8 	.word	0x200094f8

100006b8 <text_cursor_reset>:
100006b8:	2210      	movs	r2, #16
100006ba:	2001      	movs	r0, #1
100006bc:	b410      	push	{r4}
100006be:	4c08      	ldr	r4, [pc, #32]	@ (100006e0 <text_cursor_reset+0x28>)
100006c0:	4b08      	ldr	r3, [pc, #32]	@ (100006e4 <text_cursor_reset+0x2c>)
100006c2:	f894 c000 	ldrb.w	ip, [r4]
100006c6:	4908      	ldr	r1, [pc, #32]	@ (100006e8 <text_cursor_reset+0x30>)
100006c8:	f883 c000 	strb.w	ip, [r3]
100006cc:	7809      	ldrb	r1, [r1, #0]
100006ce:	4b07      	ldr	r3, [pc, #28]	@ (100006ec <text_cursor_reset+0x34>)
100006d0:	7019      	strb	r1, [r3, #0]
100006d2:	4b07      	ldr	r3, [pc, #28]	@ (100006f0 <text_cursor_reset+0x38>)
100006d4:	4907      	ldr	r1, [pc, #28]	@ (100006f4 <text_cursor_reset+0x3c>)
100006d6:	701a      	strb	r2, [r3, #0]
100006d8:	f85d 4b04 	ldr.w	r4, [sp], #4
100006dc:	7008      	strb	r0, [r1, #0]
100006de:	4770      	bx	lr
100006e0:	20009501 	.word	0x20009501
100006e4:	20009504 	.word	0x20009504
100006e8:	20009502 	.word	0x20009502
100006ec:	20009505 	.word	0x20009505
100006f0:	20000abd 	.word	0x20000abd
100006f4:	20000abe 	.word	0x20000abe

100006f8 <text_font_reset>:
100006f8:	4a03      	ldr	r2, [pc, #12]	@ (10000708 <text_font_reset+0x10>)
100006fa:	4b04      	ldr	r3, [pc, #16]	@ (1000070c <text_font_reset+0x14>)
100006fc:	8812      	ldrh	r2, [r2, #0]
100006fe:	6819      	ldr	r1, [r3, #0]
10000700:	4803      	ldr	r0, [pc, #12]	@ (10000710 <text_font_reset+0x18>)
10000702:	f003 bfa9 	b.w	10004658 <memcpy>
10000706:	bf00      	nop
10000708:	200094f8 	.word	0x200094f8
1000070c:	200094f0 	.word	0x200094f0
10000710:	20005f38 	.word	0x20005f38

10000714 <text_home>:
10000714:	4b07      	ldr	r3, [pc, #28]	@ (10000734 <text_home+0x20>)
10000716:	781b      	ldrb	r3, [r3, #0]
10000718:	b153      	cbz	r3, 10000730 <text_home+0x1c>
1000071a:	4b07      	ldr	r3, [pc, #28]	@ (10000738 <text_home+0x24>)
1000071c:	781b      	ldrb	r3, [r3, #0]
1000071e:	b13b      	cbz	r3, 10000730 <text_home+0x1c>
10000720:	4b06      	ldr	r3, [pc, #24]	@ (1000073c <text_home+0x28>)
10000722:	4a07      	ldr	r2, [pc, #28]	@ (10000740 <text_home+0x2c>)
10000724:	7818      	ldrb	r0, [r3, #0]
10000726:	4907      	ldr	r1, [pc, #28]	@ (10000744 <text_home+0x30>)
10000728:	4b07      	ldr	r3, [pc, #28]	@ (10000748 <text_home+0x34>)
1000072a:	7812      	ldrb	r2, [r2, #0]
1000072c:	7008      	strb	r0, [r1, #0]
1000072e:	701a      	strb	r2, [r3, #0]
10000730:	4770      	bx	lr
10000732:	bf00      	nop
10000734:	20000abb 	.word	0x20000abb
10000738:	20000aba 	.word	0x20000aba
1000073c:	200094fc 	.word	0x200094fc
10000740:	200094fd 	.word	0x200094fd
10000744:	20009506 	.word	0x20009506
10000748:	20009507 	.word	0x20009507

1000074c <text_test>:
1000074c:	4b4a      	ldr	r3, [pc, #296]	@ (10000878 <text_test+0x12c>)
1000074e:	781b      	ldrb	r3, [r3, #0]
10000750:	2b00      	cmp	r3, #0
10000752:	f000 8090 	beq.w	10000876 <text_test+0x12a>
10000756:	e92d 4ff0 	stmdb	sp!, {r4, r5, r6, r7, r8, r9, sl, fp, lr}
1000075a:	4a48      	ldr	r2, [pc, #288]	@ (1000087c <text_test+0x130>)
1000075c:	2300      	movs	r3, #0
1000075e:	7816      	ldrb	r6, [r2, #0]
10000760:	2208      	movs	r2, #8
10000762:	469a      	mov	sl, r3
10000764:	4611      	mov	r1, r2
10000766:	b085      	sub	sp, #20
10000768:	9301      	str	r3, [sp, #4]
1000076a:	9600      	str	r6, [sp, #0]
1000076c:	9b00      	ldr	r3, [sp, #0]
1000076e:	2b00      	cmp	r3, #0
10000770:	d07e      	beq.n	10000870 <text_test+0x124>
10000772:	2500      	movs	r5, #0
10000774:	460e      	mov	r6, r1
10000776:	4b42      	ldr	r3, [pc, #264]	@ (10000880 <text_test+0x134>)
10000778:	781c      	ldrb	r4, [r3, #0]
1000077a:	4b42      	ldr	r3, [pc, #264]	@ (10000884 <text_test+0x138>)
1000077c:	442c      	add	r4, r5
1000077e:	f893 9000 	ldrb.w	r9, [r3]
10000782:	454c      	cmp	r4, r9
10000784:	d261      	bcs.n	1000084a <text_test+0xfe>
10000786:	4a40      	ldr	r2, [pc, #256]	@ (10000888 <text_test+0x13c>)
10000788:	4b40      	ldr	r3, [pc, #256]	@ (1000088c <text_test+0x140>)
1000078a:	f892 b000 	ldrb.w	fp, [r2]
1000078e:	781b      	ldrb	r3, [r3, #0]
10000790:	9a01      	ldr	r2, [sp, #4]
10000792:	4413      	add	r3, r2
10000794:	455b      	cmp	r3, fp
10000796:	d258      	bcs.n	1000084a <text_test+0xfe>
10000798:	fb09 4403 	mla	r4, r9, r3, r4
1000079c:	4b3c      	ldr	r3, [pc, #240]	@ (10000890 <text_test+0x144>)
1000079e:	4630      	mov	r0, r6
100007a0:	f803 a004 	strb.w	sl, [r3, r4]
100007a4:	f7ff fe38 	bl	10000418 <rgb_gbr>
100007a8:	fb1b fb09 	smulbb	fp, fp, r9
100007ac:	4680      	mov	r8, r0
100007ae:	ea4f 108a 	mov.w	r0, sl, lsl #6
100007b2:	fbb0 f0fb 	udiv	r0, r0, fp
100007b6:	b2c0      	uxtb	r0, r0
100007b8:	f7ff fe2e 	bl	10000418 <rgb_gbr>
100007bc:	f04f 0c0f 	mov.w	ip, #15
100007c0:	4b34      	ldr	r3, [pc, #208]	@ (10000894 <text_test+0x148>)
100007c2:	4a35      	ldr	r2, [pc, #212]	@ (10000898 <text_test+0x14c>)
100007c4:	8819      	ldrh	r1, [r3, #0]
100007c6:	4603      	mov	r3, r0
100007c8:	f004 0707 	and.w	r7, r4, #7
100007cc:	08e4      	lsrs	r4, r4, #3
100007ce:	f852 0024 	ldr.w	r0, [r2, r4, lsl #2]
100007d2:	00bf      	lsls	r7, r7, #2
100007d4:	fa0c fc07 	lsl.w	ip, ip, r7
100007d8:	ea20 000c 	bic.w	r0, r0, ip
100007dc:	9002      	str	r0, [sp, #8]
100007de:	f3c8 1001 	ubfx	r0, r8, #4, #2
100007e2:	9003      	str	r0, [sp, #12]
100007e4:	4825      	ldr	r0, [pc, #148]	@ (1000087c <text_test+0x130>)
100007e6:	f008 0b03 	and.w	fp, r8, #3
100007ea:	f3c8 0981 	ubfx	r9, r8, #2, #2
100007ee:	f890 8000 	ldrb.w	r8, [r0]
100007f2:	9802      	ldr	r0, [sp, #8]
100007f4:	f8cd 8000 	str.w	r8, [sp]
100007f8:	ea4f 0883 	mov.w	r8, r3, lsl #2
100007fc:	f008 080c 	and.w	r8, r8, #12
10000800:	ea48 080b 	orr.w	r8, r8, fp
10000804:	fa08 f807 	lsl.w	r8, r8, r7
10000808:	ea48 0000 	orr.w	r0, r8, r0
1000080c:	f842 0024 	str.w	r0, [r2, r4, lsl #2]
10000810:	eb04 0e01 	add.w	lr, r4, r1
10000814:	f852 002e 	ldr.w	r0, [r2, lr, lsl #2]
10000818:	f003 040c 	and.w	r4, r3, #12
1000081c:	ea44 0409 	orr.w	r4, r4, r9
10000820:	ea20 000c 	bic.w	r0, r0, ip
10000824:	40bc      	lsls	r4, r7
10000826:	4304      	orrs	r4, r0
10000828:	089b      	lsrs	r3, r3, #2
1000082a:	9803      	ldr	r0, [sp, #12]
1000082c:	f003 030c 	and.w	r3, r3, #12
10000830:	4471      	add	r1, lr
10000832:	f842 402e 	str.w	r4, [r2, lr, lsl #2]
10000836:	4318      	orrs	r0, r3
10000838:	fa00 f307 	lsl.w	r3, r0, r7
1000083c:	f852 0021 	ldr.w	r0, [r2, r1, lsl #2]
10000840:	ea20 000c 	bic.w	r0, r0, ip
10000844:	4318      	orrs	r0, r3
10000846:	f842 0021 	str.w	r0, [r2, r1, lsl #2]
1000084a:	1c73      	adds	r3, r6, #1
1000084c:	b2de      	uxtb	r6, r3
1000084e:	9b00      	ldr	r3, [sp, #0]
10000850:	3501      	adds	r5, #1
10000852:	f10a 0a01 	add.w	sl, sl, #1
10000856:	42ab      	cmp	r3, r5
10000858:	fa1f fa8a 	uxth.w	sl, sl
1000085c:	d88b      	bhi.n	10000776 <text_test+0x2a>
1000085e:	4b06      	ldr	r3, [pc, #24]	@ (10000878 <text_test+0x12c>)
10000860:	9a01      	ldr	r2, [sp, #4]
10000862:	781b      	ldrb	r3, [r3, #0]
10000864:	3201      	adds	r2, #1
10000866:	4293      	cmp	r3, r2
10000868:	4631      	mov	r1, r6
1000086a:	9201      	str	r2, [sp, #4]
1000086c:	f63f af7e 	bhi.w	1000076c <text_test+0x20>
10000870:	b005      	add	sp, #20
10000872:	e8bd 8ff0 	ldmia.w	sp!, {r4, r5, r6, r7, r8, r9, sl, fp, pc}
10000876:	4770      	bx	lr
10000878:	20000aba 	.word	0x20000aba
1000087c:	20000abb 	.word	0x20000abb
10000880:	200094fc 	.word	0x200094fc
10000884:	200094fe 	.word	0x200094fe
10000888:	200094ff 	.word	0x200094ff
1000088c:	200094fd 	.word	0x200094fd
10000890:	20006f70 	.word	0x20006f70
10000894:	200094f6 	.word	0x200094f6
10000898:	200019b8 	.word	0x200019b8

1000089c <text_putc>:
1000089c:	2900      	cmp	r1, #0
1000089e:	f000 808a 	beq.w	100009b6 <text_putc+0x11a>
100008a2:	1842      	adds	r2, r0, r1
100008a4:	e92d 4ff0 	stmdb	sp!, {r4, r5, r6, r7, r8, r9, sl, fp, lr}
100008a8:	4605      	mov	r5, r0
100008aa:	4691      	mov	r9, r2
100008ac:	f8df a138 	ldr.w	sl, [pc, #312]	@ 100009e8 <text_putc+0x14c>
100008b0:	b083      	sub	sp, #12
100008b2:	f89a 3000 	ldrb.w	r3, [sl]
100008b6:	4a40      	ldr	r2, [pc, #256]	@ (100009b8 <text_putc+0x11c>)
100008b8:	4840      	ldr	r0, [pc, #256]	@ (100009bc <text_putc+0x120>)
100008ba:	7814      	ldrb	r4, [r2, #0]
100008bc:	4940      	ldr	r1, [pc, #256]	@ (100009c0 <text_putc+0x124>)
100008be:	42a3      	cmp	r3, r4
100008c0:	f105 0501 	add.w	r5, r5, #1
100008c4:	d257      	bcs.n	10000976 <text_putc+0xda>
100008c6:	4a3f      	ldr	r2, [pc, #252]	@ (100009c4 <text_putc+0x128>)
100008c8:	4e3f      	ldr	r6, [pc, #252]	@ (100009c8 <text_putc+0x12c>)
100008ca:	7812      	ldrb	r2, [r2, #0]
100008cc:	7836      	ldrb	r6, [r6, #0]
100008ce:	42b2      	cmp	r2, r6
100008d0:	d251      	bcs.n	10000976 <text_putc+0xda>
100008d2:	fb02 3404 	mla	r4, r2, r4, r3
100008d6:	f815 3c01 	ldrb.w	r3, [r5, #-1]
100008da:	4a3c      	ldr	r2, [pc, #240]	@ (100009cc <text_putc+0x130>)
100008dc:	7800      	ldrb	r0, [r0, #0]
100008de:	780f      	ldrb	r7, [r1, #0]
100008e0:	5513      	strb	r3, [r2, r4]
100008e2:	f7ff fd99 	bl	10000418 <rgb_gbr>
100008e6:	4680      	mov	r8, r0
100008e8:	4638      	mov	r0, r7
100008ea:	f7ff fd95 	bl	10000418 <rgb_gbr>
100008ee:	4602      	mov	r2, r0
100008f0:	4b37      	ldr	r3, [pc, #220]	@ (100009d0 <text_putc+0x134>)
100008f2:	f04f 0c0f 	mov.w	ip, #15
100008f6:	881f      	ldrh	r7, [r3, #0]
100008f8:	f004 0607 	and.w	r6, r4, #7
100008fc:	08e4      	lsrs	r4, r4, #3
100008fe:	eb04 0e07 	add.w	lr, r4, r7
10000902:	eb07 030e 	add.w	r3, r7, lr
10000906:	9300      	str	r3, [sp, #0]
10000908:	f3c8 0381 	ubfx	r3, r8, #2, #2
1000090c:	461f      	mov	r7, r3
1000090e:	4931      	ldr	r1, [pc, #196]	@ (100009d4 <text_putc+0x138>)
10000910:	f3c8 1301 	ubfx	r3, r8, #4, #2
10000914:	f008 0b03 	and.w	fp, r8, #3
10000918:	ea4f 0882 	mov.w	r8, r2, lsl #2
1000091c:	f851 0024 	ldr.w	r0, [r1, r4, lsl #2]
10000920:	00b6      	lsls	r6, r6, #2
10000922:	f008 080c 	and.w	r8, r8, #12
10000926:	fa0c fc06 	lsl.w	ip, ip, r6
1000092a:	ea48 080b 	orr.w	r8, r8, fp
1000092e:	ea20 000c 	bic.w	r0, r0, ip
10000932:	fa08 f806 	lsl.w	r8, r8, r6
10000936:	ea48 0000 	orr.w	r0, r8, r0
1000093a:	f841 0024 	str.w	r0, [r1, r4, lsl #2]
1000093e:	f851 002e 	ldr.w	r0, [r1, lr, lsl #2]
10000942:	9301      	str	r3, [sp, #4]
10000944:	ea20 040c 	bic.w	r4, r0, ip
10000948:	f002 000c 	and.w	r0, r2, #12
1000094c:	4338      	orrs	r0, r7
1000094e:	40b0      	lsls	r0, r6
10000950:	4320      	orrs	r0, r4
10000952:	f841 002e 	str.w	r0, [r1, lr, lsl #2]
10000956:	9c00      	ldr	r4, [sp, #0]
10000958:	9801      	ldr	r0, [sp, #4]
1000095a:	0892      	lsrs	r2, r2, #2
1000095c:	f002 020c 	and.w	r2, r2, #12
10000960:	4302      	orrs	r2, r0
10000962:	f851 0024 	ldr.w	r0, [r1, r4, lsl #2]
10000966:	40b2      	lsls	r2, r6
10000968:	ea20 000c 	bic.w	r0, r0, ip
1000096c:	4302      	orrs	r2, r0
1000096e:	f89a 3000 	ldrb.w	r3, [sl]
10000972:	f841 2024 	str.w	r2, [r1, r4, lsl #2]
10000976:	4a18      	ldr	r2, [pc, #96]	@ (100009d8 <text_putc+0x13c>)
10000978:	3301      	adds	r3, #1
1000097a:	7811      	ldrb	r1, [r2, #0]
1000097c:	4a17      	ldr	r2, [pc, #92]	@ (100009dc <text_putc+0x140>)
1000097e:	b2db      	uxtb	r3, r3
10000980:	7812      	ldrb	r2, [r2, #0]
10000982:	4c17      	ldr	r4, [pc, #92]	@ (100009e0 <text_putc+0x144>)
10000984:	440a      	add	r2, r1
10000986:	4293      	cmp	r3, r2
10000988:	4816      	ldr	r0, [pc, #88]	@ (100009e4 <text_putc+0x148>)
1000098a:	f88a 3000 	strb.w	r3, [sl]
1000098e:	db0d      	blt.n	100009ac <text_putc+0x110>
10000990:	4e0c      	ldr	r6, [pc, #48]	@ (100009c4 <text_putc+0x128>)
10000992:	7822      	ldrb	r2, [r4, #0]
10000994:	7833      	ldrb	r3, [r6, #0]
10000996:	7800      	ldrb	r0, [r0, #0]
10000998:	3301      	adds	r3, #1
1000099a:	b2db      	uxtb	r3, r3
1000099c:	4410      	add	r0, r2
1000099e:	4283      	cmp	r3, r0
100009a0:	bfb8      	it	lt
100009a2:	461a      	movlt	r2, r3
100009a4:	460b      	mov	r3, r1
100009a6:	f88a 1000 	strb.w	r1, [sl]
100009aa:	7032      	strb	r2, [r6, #0]
100009ac:	454d      	cmp	r5, r9
100009ae:	d182      	bne.n	100008b6 <text_putc+0x1a>
100009b0:	b003      	add	sp, #12
100009b2:	e8bd 8ff0 	ldmia.w	sp!, {r4, r5, r6, r7, r8, r9, sl, fp, pc}
100009b6:	4770      	bx	lr
100009b8:	200094fe 	.word	0x200094fe
100009bc:	20000ab8 	.word	0x20000ab8
100009c0:	20000ab9 	.word	0x20000ab9
100009c4:	20009507 	.word	0x20009507
100009c8:	200094ff 	.word	0x200094ff
100009cc:	20006f70 	.word	0x20006f70
100009d0:	200094f6 	.word	0x200094f6
100009d4:	200019b8 	.word	0x200019b8
100009d8:	200094fc 	.word	0x200094fc
100009dc:	20000abb 	.word	0x20000abb
100009e0:	200094fd 	.word	0x200094fd
100009e4:	20000aba 	.word	0x20000aba
100009e8:	20009506 	.word	0x20009506

100009ec <text_clear>:
100009ec:	e92d 4ff0 	stmdb	sp!, {r4, r5, r6, r7, r8, r9, sl, fp, lr}
100009f0:	4b41      	ldr	r3, [pc, #260]	@ (10000af8 <text_clear+0x10c>)
100009f2:	4a42      	ldr	r2, [pc, #264]	@ (10000afc <text_clear+0x110>)
100009f4:	781b      	ldrb	r3, [r3, #0]
100009f6:	7817      	ldrb	r7, [r2, #0]
100009f8:	b085      	sub	sp, #20
100009fa:	2b00      	cmp	r3, #0
100009fc:	d071      	beq.n	10000ae2 <text_clear+0xf6>
100009fe:	f04f 0b0f 	mov.w	fp, #15
10000a02:	463c      	mov	r4, r7
10000a04:	4a3e      	ldr	r2, [pc, #248]	@ (10000b00 <text_clear+0x114>)
10000a06:	4b3f      	ldr	r3, [pc, #252]	@ (10000b04 <text_clear+0x118>)
10000a08:	7816      	ldrb	r6, [r2, #0]
10000a0a:	781b      	ldrb	r3, [r3, #0]
10000a0c:	2100      	movs	r1, #0
10000a0e:	fb04 6603 	mla	r6, r4, r3, r6
10000a12:	4b3d      	ldr	r3, [pc, #244]	@ (10000b08 <text_clear+0x11c>)
10000a14:	f893 a000 	ldrb.w	sl, [r3]
10000a18:	4b3c      	ldr	r3, [pc, #240]	@ (10000b0c <text_clear+0x120>)
10000a1a:	4652      	mov	r2, sl
10000a1c:	1998      	adds	r0, r3, r6
10000a1e:	4b3c      	ldr	r3, [pc, #240]	@ (10000b10 <text_clear+0x124>)
10000a20:	781d      	ldrb	r5, [r3, #0]
10000a22:	4b3c      	ldr	r3, [pc, #240]	@ (10000b14 <text_clear+0x128>)
10000a24:	781f      	ldrb	r7, [r3, #0]
10000a26:	f003 f973 	bl	10003d10 <memset>
10000a2a:	f006 0307 	and.w	r3, r6, #7
10000a2e:	009b      	lsls	r3, r3, #2
10000a30:	4638      	mov	r0, r7
10000a32:	9301      	str	r3, [sp, #4]
10000a34:	f7ff fcf0 	bl	10000418 <rgb_gbr>
10000a38:	4680      	mov	r8, r0
10000a3a:	4628      	mov	r0, r5
10000a3c:	f7ff fcec 	bl	10000418 <rgb_gbr>
10000a40:	4b35      	ldr	r3, [pc, #212]	@ (10000b18 <text_clear+0x12c>)
10000a42:	4686      	mov	lr, r0
10000a44:	881f      	ldrh	r7, [r3, #0]
10000a46:	10f6      	asrs	r6, r6, #3
10000a48:	f1ba 0f00 	cmp.w	sl, #0
10000a4c:	d041      	beq.n	10000ad2 <text_clear+0xe6>
10000a4e:	e9cd a402 	strd	sl, r4, [sp, #8]
10000a52:	f04f 0903 	mov.w	r9, #3
10000a56:	4634      	mov	r4, r6
10000a58:	46ba      	mov	sl, r7
10000a5a:	4d30      	ldr	r5, [pc, #192]	@ (10000b1c <text_clear+0x130>)
10000a5c:	ea4f 0c8e 	mov.w	ip, lr, lsl #2
10000a60:	f008 0303 	and.w	r3, r8, #3
10000a64:	f00c 0c0c 	and.w	ip, ip, #12
10000a68:	ea4c 0c03 	orr.w	ip, ip, r3
10000a6c:	4620      	mov	r0, r4
10000a6e:	e9dd 3101 	ldrd	r3, r1, [sp, #4]
10000a72:	2600      	movs	r6, #0
10000a74:	f8cd 9000 	str.w	r9, [sp]
10000a78:	e009      	b.n	10000a8e <text_clear+0xa2>
10000a7a:	b973      	cbnz	r3, 10000a9a <text_clear+0xae>
10000a7c:	b3b6      	cbz	r6, 10000aec <text_clear+0x100>
10000a7e:	4632      	mov	r2, r6
10000a80:	1c47      	adds	r7, r0, #1
10000a82:	3907      	subs	r1, #7
10000a84:	3901      	subs	r1, #1
10000a86:	f845 2020 	str.w	r2, [r5, r0, lsl #2]
10000a8a:	d017      	beq.n	10000abc <text_clear+0xd0>
10000a8c:	4638      	mov	r0, r7
10000a8e:	2907      	cmp	r1, #7
10000a90:	fa0b f703 	lsl.w	r7, fp, r3
10000a94:	fa0c f903 	lsl.w	r9, ip, r3
10000a98:	dcef      	bgt.n	10000a7a <text_clear+0x8e>
10000a9a:	f855 2020 	ldr.w	r2, [r5, r0, lsl #2]
10000a9e:	3304      	adds	r3, #4
10000aa0:	ea22 0207 	bic.w	r2, r2, r7
10000aa4:	2b1c      	cmp	r3, #28
10000aa6:	ea42 0209 	orr.w	r2, r2, r9
10000aaa:	d91d      	bls.n	10000ae8 <text_clear+0xfc>
10000aac:	3901      	subs	r1, #1
10000aae:	f04f 0300 	mov.w	r3, #0
10000ab2:	f100 0701 	add.w	r7, r0, #1
10000ab6:	f845 2020 	str.w	r2, [r5, r0, lsl #2]
10000aba:	d1e7      	bne.n	10000a8c <text_clear+0xa0>
10000abc:	f8dd 9000 	ldr.w	r9, [sp]
10000ac0:	f3c8 0887 	ubfx	r8, r8, #2, #8
10000ac4:	f1b9 0901 	subs.w	r9, r9, #1
10000ac8:	f3ce 0e87 	ubfx	lr, lr, #2, #8
10000acc:	4454      	add	r4, sl
10000ace:	d1c5      	bne.n	10000a5c <text_clear+0x70>
10000ad0:	9c03      	ldr	r4, [sp, #12]
10000ad2:	4b0a      	ldr	r3, [pc, #40]	@ (10000afc <text_clear+0x110>)
10000ad4:	4a08      	ldr	r2, [pc, #32]	@ (10000af8 <text_clear+0x10c>)
10000ad6:	781b      	ldrb	r3, [r3, #0]
10000ad8:	7812      	ldrb	r2, [r2, #0]
10000ada:	3401      	adds	r4, #1
10000adc:	4413      	add	r3, r2
10000ade:	42a3      	cmp	r3, r4
10000ae0:	dc90      	bgt.n	10000a04 <text_clear+0x18>
10000ae2:	b005      	add	sp, #20
10000ae4:	e8bd 8ff0 	ldmia.w	sp!, {r4, r5, r6, r7, r8, r9, sl, fp, pc}
10000ae8:	4607      	mov	r7, r0
10000aea:	e7cb      	b.n	10000a84 <text_clear+0x98>
10000aec:	f04f 3211 	mov.w	r2, #286331153	@ 0x11111111
10000af0:	fb02 f60c 	mul.w	r6, r2, ip
10000af4:	e7c3      	b.n	10000a7e <text_clear+0x92>
10000af6:	bf00      	nop
10000af8:	20000aba 	.word	0x20000aba
10000afc:	200094fd 	.word	0x200094fd
10000b00:	200094fc 	.word	0x200094fc
10000b04:	200094fe 	.word	0x200094fe
10000b08:	20000abb 	.word	0x20000abb
10000b0c:	20006f70 	.word	0x20006f70
10000b10:	20000ab9 	.word	0x20000ab9
10000b14:	20000ab8 	.word	0x20000ab8
10000b18:	200094f6 	.word	0x200094f6
10000b1c:	200019b8 	.word	0x200019b8

10000b20 <text_scroll_h>:
10000b20:	b538      	push	{r3, r4, r5, lr}
10000b22:	f990 4000 	ldrsb.w	r4, [r0]
10000b26:	b144      	cbz	r4, 10000b3a <text_scroll_h+0x1a>
10000b28:	4d10      	ldr	r5, [pc, #64]	@ (10000b6c <text_scroll_h+0x4c>)
10000b2a:	ea84 73e4 	eor.w	r3, r4, r4, asr #31
10000b2e:	782a      	ldrb	r2, [r5, #0]
10000b30:	eba3 73e4 	sub.w	r3, r3, r4, asr #31
10000b34:	b2db      	uxtb	r3, r3
10000b36:	429a      	cmp	r2, r3
10000b38:	d900      	bls.n	10000b3c <text_scroll_h+0x1c>
10000b3a:	bd38      	pop	{r3, r4, r5, pc}
10000b3c:	2100      	movs	r1, #0
10000b3e:	2201      	movs	r2, #1
10000b40:	4608      	mov	r0, r1
10000b42:	f7ff ff53 	bl	100009ec <text_clear>
10000b46:	4a0a      	ldr	r2, [pc, #40]	@ (10000b70 <text_scroll_h+0x50>)
10000b48:	4b0a      	ldr	r3, [pc, #40]	@ (10000b74 <text_scroll_h+0x54>)
10000b4a:	7812      	ldrb	r2, [r2, #0]
10000b4c:	2c00      	cmp	r4, #0
10000b4e:	701a      	strb	r2, [r3, #0]
10000b50:	db07      	blt.n	10000b62 <text_scroll_h+0x42>
10000b52:	4b09      	ldr	r3, [pc, #36]	@ (10000b78 <text_scroll_h+0x58>)
10000b54:	7829      	ldrb	r1, [r5, #0]
10000b56:	781b      	ldrb	r3, [r3, #0]
10000b58:	4a08      	ldr	r2, [pc, #32]	@ (10000b7c <text_scroll_h+0x5c>)
10000b5a:	440b      	add	r3, r1
10000b5c:	3b01      	subs	r3, #1
10000b5e:	7013      	strb	r3, [r2, #0]
10000b60:	bd38      	pop	{r3, r4, r5, pc}
10000b62:	4a05      	ldr	r2, [pc, #20]	@ (10000b78 <text_scroll_h+0x58>)
10000b64:	4b05      	ldr	r3, [pc, #20]	@ (10000b7c <text_scroll_h+0x5c>)
10000b66:	7812      	ldrb	r2, [r2, #0]
10000b68:	701a      	strb	r2, [r3, #0]
10000b6a:	bd38      	pop	{r3, r4, r5, pc}
10000b6c:	20000abb 	.word	0x20000abb
10000b70:	200094fd 	.word	0x200094fd
10000b74:	20009507 	.word	0x20009507
10000b78:	200094fc 	.word	0x200094fc
10000b7c:	20009506 	.word	0x20009506

10000b80 <text_scroll_v>:
10000b80:	e92d 4ff0 	stmdb	sp!, {r4, r5, r6, r7, r8, r9, sl, fp, lr}
10000b84:	f990 5000 	ldrsb.w	r5, [r0]
10000b88:	b091      	sub	sp, #68	@ 0x44
10000b8a:	2d00      	cmp	r5, #0
10000b8c:	f000 8157 	beq.w	10000e3e <text_scroll_v+0x2be>
10000b90:	4cac      	ldr	r4, [pc, #688]	@ (10000e44 <text_scroll_v+0x2c4>)
10000b92:	ea85 73e5 	eor.w	r3, r5, r5, asr #31
10000b96:	7826      	ldrb	r6, [r4, #0]
10000b98:	eba3 73e5 	sub.w	r3, r3, r5, asr #31
10000b9c:	b2d9      	uxtb	r1, r3
10000b9e:	428e      	cmp	r6, r1
10000ba0:	f240 813a 	bls.w	10000e18 <text_scroll_v+0x298>
10000ba4:	4ba8      	ldr	r3, [pc, #672]	@ (10000e48 <text_scroll_v+0x2c8>)
10000ba6:	4fa9      	ldr	r7, [pc, #676]	@ (10000e4c <text_scroll_v+0x2cc>)
10000ba8:	781c      	ldrb	r4, [r3, #0]
10000baa:	4ba9      	ldr	r3, [pc, #676]	@ (10000e50 <text_scroll_v+0x2d0>)
10000bac:	2d00      	cmp	r5, #0
10000bae:	7818      	ldrb	r0, [r3, #0]
10000bb0:	4ba8      	ldr	r3, [pc, #672]	@ (10000e54 <text_scroll_v+0x2d4>)
10000bb2:	f897 b000 	ldrb.w	fp, [r7]
10000bb6:	f893 9000 	ldrb.w	r9, [r3]
10000bba:	fb14 f300 	smulbb	r3, r4, r0
10000bbe:	eba6 0201 	sub.w	r2, r6, r1
10000bc2:	9004      	str	r0, [sp, #16]
10000bc4:	eb09 0703 	add.w	r7, r9, r3
10000bc8:	f340 8154 	ble.w	10000e74 <text_scroll_v+0x2f4>
10000bcc:	1928      	adds	r0, r5, r4
10000bce:	9d04      	ldr	r5, [sp, #16]
10000bd0:	2a00      	cmp	r2, #0
10000bd2:	fb05 f000 	mul.w	r0, r5, r0
10000bd6:	eb02 0504 	add.w	r5, r2, r4
10000bda:	f340 822c 	ble.w	10001036 <text_scroll_v+0x4b6>
10000bde:	1ac3      	subs	r3, r0, r3
10000be0:	9309      	str	r3, [sp, #36]	@ 0x24
10000be2:	4b9d      	ldr	r3, [pc, #628]	@ (10000e58 <text_scroll_v+0x2d8>)
10000be4:	489d      	ldr	r0, [pc, #628]	@ (10000e5c <text_scroll_v+0x2dc>)
10000be6:	9305      	str	r3, [sp, #20]
10000be8:	881b      	ldrh	r3, [r3, #0]
10000bea:	e9cd 640b 	strd	r6, r4, [sp, #44]	@ 0x2c
10000bee:	9303      	str	r3, [sp, #12]
10000bf0:	19c3      	adds	r3, r0, r7
10000bf2:	950e      	str	r5, [sp, #56]	@ 0x38
10000bf4:	9700      	str	r7, [sp, #0]
10000bf6:	f04f 0a0f 	mov.w	sl, #15
10000bfa:	461d      	mov	r5, r3
10000bfc:	2400      	movs	r4, #0
10000bfe:	465f      	mov	r7, fp
10000c00:	9006      	str	r0, [sp, #24]
10000c02:	910d      	str	r1, [sp, #52]	@ 0x34
10000c04:	920a      	str	r2, [sp, #40]	@ 0x28
10000c06:	f8cd 903c 	str.w	r9, [sp, #60]	@ 0x3c
10000c0a:	9e09      	ldr	r6, [sp, #36]	@ 0x24
10000c0c:	9b00      	ldr	r3, [sp, #0]
10000c0e:	1971      	adds	r1, r6, r5
10000c10:	463a      	mov	r2, r7
10000c12:	4628      	mov	r0, r5
10000c14:	199e      	adds	r6, r3, r6
10000c16:	f003 fd1f 	bl	10004658 <memcpy>
10000c1a:	9800      	ldr	r0, [sp, #0]
10000c1c:	f006 0907 	and.w	r9, r6, #7
10000c20:	4241      	negs	r1, r0
10000c22:	f001 0107 	and.w	r1, r1, #7
10000c26:	f000 0207 	and.w	r2, r0, #7
10000c2a:	bf58      	it	pl
10000c2c:	424a      	negpl	r2, r1
10000c2e:	0093      	lsls	r3, r2, #2
10000c30:	4602      	mov	r2, r0
10000c32:	2800      	cmp	r0, #0
10000c34:	bfb8      	it	lt
10000c36:	1dc2      	addlt	r2, r0, #7
10000c38:	4271      	negs	r1, r6
10000c3a:	f001 0107 	and.w	r1, r1, #7
10000c3e:	bf58      	it	pl
10000c40:	f1c1 0900 	rsbpl	r9, r1, #0
10000c44:	2e00      	cmp	r6, #0
10000c46:	bfb8      	it	lt
10000c48:	3607      	addlt	r6, #7
10000c4a:	10d2      	asrs	r2, r2, #3
10000c4c:	ea4f 0989 	mov.w	r9, r9, lsl #2
10000c50:	ea4f 0ee6 	mov.w	lr, r6, asr #3
10000c54:	2f00      	cmp	r7, #0
10000c56:	d048      	beq.n	10000cea <text_scroll_v+0x16a>
10000c58:	f04f 0803 	mov.w	r8, #3
10000c5c:	e9cd 5407 	strd	r5, r4, [sp, #28]
10000c60:	e9cd 3901 	strd	r3, r9, [sp, #4]
10000c64:	4e7e      	ldr	r6, [pc, #504]	@ (10000e60 <text_scroll_v+0x2e0>)
10000c66:	eba2 0b0e 	sub.w	fp, r2, lr
10000c6a:	4638      	mov	r0, r7
10000c6c:	e9dd 2101 	ldrd	r2, r1, [sp, #4]
10000c70:	46f4      	mov	ip, lr
10000c72:	2807      	cmp	r0, #7
10000c74:	f856 302c 	ldr.w	r3, [r6, ip, lsl #2]
10000c78:	eb0b 040e 	add.w	r4, fp, lr
10000c7c:	dd11      	ble.n	10000ca2 <text_scroll_v+0x122>
10000c7e:	b981      	cbnz	r1, 10000ca2 <text_scroll_v+0x122>
10000c80:	2a00      	cmp	r2, #0
10000c82:	f040 8197 	bne.w	10000fb4 <text_scroll_v+0x434>
10000c86:	3807      	subs	r0, #7
10000c88:	3801      	subs	r0, #1
10000c8a:	f10c 0c01 	add.w	ip, ip, #1
10000c8e:	f104 0501 	add.w	r5, r4, #1
10000c92:	f846 3024 	str.w	r3, [r6, r4, lsl #2]
10000c96:	d021      	beq.n	10000cdc <text_scroll_v+0x15c>
10000c98:	462c      	mov	r4, r5
10000c9a:	2807      	cmp	r0, #7
10000c9c:	f856 302c 	ldr.w	r3, [r6, ip, lsl #2]
10000ca0:	dced      	bgt.n	10000c7e <text_scroll_v+0xfe>
10000ca2:	fa0a f901 	lsl.w	r9, sl, r1
10000ca6:	f856 5024 	ldr.w	r5, [r6, r4, lsl #2]
10000caa:	3104      	adds	r1, #4
10000cac:	291c      	cmp	r1, #28
10000cae:	ea09 0303 	and.w	r3, r9, r3
10000cb2:	fa0a f902 	lsl.w	r9, sl, r2
10000cb6:	f102 0204 	add.w	r2, r2, #4
10000cba:	ea25 0509 	bic.w	r5, r5, r9
10000cbe:	bf84      	itt	hi
10000cc0:	2100      	movhi	r1, #0
10000cc2:	f10c 0c01 	addhi.w	ip, ip, #1
10000cc6:	2a1c      	cmp	r2, #28
10000cc8:	ea43 0305 	orr.w	r3, r3, r5
10000ccc:	bf8a      	itet	hi
10000cce:	2200      	movhi	r2, #0
10000cd0:	4625      	movls	r5, r4
10000cd2:	1c65      	addhi	r5, r4, #1
10000cd4:	3801      	subs	r0, #1
10000cd6:	f846 3024 	str.w	r3, [r6, r4, lsl #2]
10000cda:	d1dd      	bne.n	10000c98 <text_scroll_v+0x118>
10000cdc:	9b03      	ldr	r3, [sp, #12]
10000cde:	f1b8 0801 	subs.w	r8, r8, #1
10000ce2:	449e      	add	lr, r3
10000ce4:	d1c1      	bne.n	10000c6a <text_scroll_v+0xea>
10000ce6:	e9dd 5407 	ldrd	r5, r4, [sp, #28]
10000cea:	9b00      	ldr	r3, [sp, #0]
10000cec:	9a04      	ldr	r2, [sp, #16]
10000cee:	3401      	adds	r4, #1
10000cf0:	4413      	add	r3, r2
10000cf2:	9300      	str	r3, [sp, #0]
10000cf4:	9b0a      	ldr	r3, [sp, #40]	@ 0x28
10000cf6:	4415      	add	r5, r2
10000cf8:	42a3      	cmp	r3, r4
10000cfa:	d186      	bne.n	10000c0a <text_scroll_v+0x8a>
10000cfc:	e9dd 640b 	ldrd	r6, r4, [sp, #44]	@ 0x2c
10000d00:	e9dd 150d 	ldrd	r1, r5, [sp, #52]	@ 0x34
10000d04:	46bb      	mov	fp, r7
10000d06:	f8dd 903c 	ldr.w	r9, [sp, #60]	@ 0x3c
10000d0a:	fb02 9705 	mla	r7, r2, r5, r9
10000d0e:	1933      	adds	r3, r6, r4
10000d10:	1a5b      	subs	r3, r3, r1
10000d12:	b2dc      	uxtb	r4, r3
10000d14:	2200      	movs	r2, #0
10000d16:	4b53      	ldr	r3, [pc, #332]	@ (10000e64 <text_scroll_v+0x2e4>)
10000d18:	f04f 0a0f 	mov.w	sl, #15
10000d1c:	f883 9000 	strb.w	r9, [r3]
10000d20:	4b51      	ldr	r3, [pc, #324]	@ (10000e68 <text_scroll_v+0x2e8>)
10000d22:	9107      	str	r1, [sp, #28]
10000d24:	701c      	strb	r4, [r3, #0]
10000d26:	4614      	mov	r4, r2
10000d28:	4b50      	ldr	r3, [pc, #320]	@ (10000e6c <text_scroll_v+0x2ec>)
10000d2a:	2100      	movs	r1, #0
10000d2c:	781d      	ldrb	r5, [r3, #0]
10000d2e:	9b06      	ldr	r3, [sp, #24]
10000d30:	465a      	mov	r2, fp
10000d32:	19d8      	adds	r0, r3, r7
10000d34:	4b4e      	ldr	r3, [pc, #312]	@ (10000e70 <text_scroll_v+0x2f0>)
10000d36:	463e      	mov	r6, r7
10000d38:	f893 8000 	ldrb.w	r8, [r3]
10000d3c:	f002 ffe8 	bl	10003d10 <memset>
10000d40:	427a      	negs	r2, r7
10000d42:	f002 0207 	and.w	r2, r2, #7
10000d46:	f007 0307 	and.w	r3, r7, #7
10000d4a:	bf58      	it	pl
10000d4c:	4253      	negpl	r3, r2
10000d4e:	009b      	lsls	r3, r3, #2
10000d50:	2f00      	cmp	r7, #0
10000d52:	4640      	mov	r0, r8
10000d54:	9301      	str	r3, [sp, #4]
10000d56:	bfb8      	it	lt
10000d58:	1dfe      	addlt	r6, r7, #7
10000d5a:	f7ff fb5d 	bl	10000418 <rgb_gbr>
10000d5e:	4680      	mov	r8, r0
10000d60:	4628      	mov	r0, r5
10000d62:	f7ff fb59 	bl	10000418 <rgb_gbr>
10000d66:	9b05      	ldr	r3, [sp, #20]
10000d68:	4686      	mov	lr, r0
10000d6a:	881b      	ldrh	r3, [r3, #0]
10000d6c:	10f6      	asrs	r6, r6, #3
10000d6e:	9302      	str	r3, [sp, #8]
10000d70:	f1bb 0f00 	cmp.w	fp, #0
10000d74:	d045      	beq.n	10000e02 <text_scroll_v+0x282>
10000d76:	e9cd 7403 	strd	r7, r4, [sp, #12]
10000d7a:	f04f 0903 	mov.w	r9, #3
10000d7e:	4634      	mov	r4, r6
10000d80:	4d37      	ldr	r5, [pc, #220]	@ (10000e60 <text_scroll_v+0x2e0>)
10000d82:	ea4f 0c8e 	mov.w	ip, lr, lsl #2
10000d86:	f008 0303 	and.w	r3, r8, #3
10000d8a:	f00c 0c0c 	and.w	ip, ip, #12
10000d8e:	ea4c 0c03 	orr.w	ip, ip, r3
10000d92:	4620      	mov	r0, r4
10000d94:	4659      	mov	r1, fp
10000d96:	2600      	movs	r6, #0
10000d98:	9b01      	ldr	r3, [sp, #4]
10000d9a:	f8cd 9000 	str.w	r9, [sp]
10000d9e:	e00b      	b.n	10000db8 <text_scroll_v+0x238>
10000da0:	b983      	cbnz	r3, 10000dc4 <text_scroll_v+0x244>
10000da2:	2e00      	cmp	r6, #0
10000da4:	f000 811a 	beq.w	10000fdc <text_scroll_v+0x45c>
10000da8:	4632      	mov	r2, r6
10000daa:	1c47      	adds	r7, r0, #1
10000dac:	3907      	subs	r1, #7
10000dae:	3901      	subs	r1, #1
10000db0:	f845 2020 	str.w	r2, [r5, r0, lsl #2]
10000db4:	d018      	beq.n	10000de8 <text_scroll_v+0x268>
10000db6:	4638      	mov	r0, r7
10000db8:	2907      	cmp	r1, #7
10000dba:	fa0a f703 	lsl.w	r7, sl, r3
10000dbe:	fa0c f903 	lsl.w	r9, ip, r3
10000dc2:	dced      	bgt.n	10000da0 <text_scroll_v+0x220>
10000dc4:	f855 2020 	ldr.w	r2, [r5, r0, lsl #2]
10000dc8:	3304      	adds	r3, #4
10000dca:	ea22 0207 	bic.w	r2, r2, r7
10000dce:	2b1c      	cmp	r3, #28
10000dd0:	ea42 0209 	orr.w	r2, r2, r9
10000dd4:	f240 80ec 	bls.w	10000fb0 <text_scroll_v+0x430>
10000dd8:	3901      	subs	r1, #1
10000dda:	f04f 0300 	mov.w	r3, #0
10000dde:	f100 0701 	add.w	r7, r0, #1
10000de2:	f845 2020 	str.w	r2, [r5, r0, lsl #2]
10000de6:	d1e6      	bne.n	10000db6 <text_scroll_v+0x236>
10000de8:	f8dd 9000 	ldr.w	r9, [sp]
10000dec:	9b02      	ldr	r3, [sp, #8]
10000dee:	f1b9 0901 	subs.w	r9, r9, #1
10000df2:	f3c8 0887 	ubfx	r8, r8, #2, #8
10000df6:	f3ce 0e87 	ubfx	lr, lr, #2, #8
10000dfa:	441c      	add	r4, r3
10000dfc:	d1c1      	bne.n	10000d82 <text_scroll_v+0x202>
10000dfe:	e9dd 7403 	ldrd	r7, r4, [sp, #12]
10000e02:	4b13      	ldr	r3, [pc, #76]	@ (10000e50 <text_scroll_v+0x2d0>)
10000e04:	3401      	adds	r4, #1
10000e06:	781b      	ldrb	r3, [r3, #0]
10000e08:	441f      	add	r7, r3
10000e0a:	9b07      	ldr	r3, [sp, #28]
10000e0c:	42a3      	cmp	r3, r4
10000e0e:	d016      	beq.n	10000e3e <text_scroll_v+0x2be>
10000e10:	4b0e      	ldr	r3, [pc, #56]	@ (10000e4c <text_scroll_v+0x2cc>)
10000e12:	f893 b000 	ldrb.w	fp, [r3]
10000e16:	e787      	b.n	10000d28 <text_scroll_v+0x1a8>
10000e18:	2100      	movs	r1, #0
10000e1a:	2201      	movs	r2, #1
10000e1c:	4608      	mov	r0, r1
10000e1e:	f7ff fde5 	bl	100009ec <text_clear>
10000e22:	4a0c      	ldr	r2, [pc, #48]	@ (10000e54 <text_scroll_v+0x2d4>)
10000e24:	4b0f      	ldr	r3, [pc, #60]	@ (10000e64 <text_scroll_v+0x2e4>)
10000e26:	7812      	ldrb	r2, [r2, #0]
10000e28:	2d00      	cmp	r5, #0
10000e2a:	701a      	strb	r2, [r3, #0]
10000e2c:	f2c0 80f9 	blt.w	10001022 <text_scroll_v+0x4a2>
10000e30:	4b05      	ldr	r3, [pc, #20]	@ (10000e48 <text_scroll_v+0x2c8>)
10000e32:	7821      	ldrb	r1, [r4, #0]
10000e34:	781b      	ldrb	r3, [r3, #0]
10000e36:	4a0c      	ldr	r2, [pc, #48]	@ (10000e68 <text_scroll_v+0x2e8>)
10000e38:	440b      	add	r3, r1
10000e3a:	3b01      	subs	r3, #1
10000e3c:	7013      	strb	r3, [r2, #0]
10000e3e:	b011      	add	sp, #68	@ 0x44
10000e40:	e8bd 8ff0 	ldmia.w	sp!, {r4, r5, r6, r7, r8, r9, sl, fp, pc}
10000e44:	20000aba 	.word	0x20000aba
10000e48:	200094fd 	.word	0x200094fd
10000e4c:	20000abb 	.word	0x20000abb
10000e50:	200094fe 	.word	0x200094fe
10000e54:	200094fc 	.word	0x200094fc
10000e58:	200094f6 	.word	0x200094f6
10000e5c:	20006f70 	.word	0x20006f70
10000e60:	200019b8 	.word	0x200019b8
10000e64:	20009506 	.word	0x20009506
10000e68:	20009507 	.word	0x20009507
10000e6c:	20000ab9 	.word	0x20000ab9
10000e70:	20000ab8 	.word	0x20000ab8
10000e74:	1930      	adds	r0, r6, r4
10000e76:	3801      	subs	r0, #1
10000e78:	1943      	adds	r3, r0, r5
10000e7a:	9d04      	ldr	r5, [sp, #16]
10000e7c:	2a00      	cmp	r2, #0
10000e7e:	fb05 f000 	mul.w	r0, r5, r0
10000e82:	fb05 f303 	mul.w	r3, r5, r3
10000e86:	eb00 0509 	add.w	r5, r0, r9
10000e8a:	462e      	mov	r6, r5
10000e8c:	f340 80ce 	ble.w	1000102c <text_scroll_v+0x4ac>
10000e90:	2500      	movs	r5, #0
10000e92:	1a1b      	subs	r3, r3, r0
10000e94:	9309      	str	r3, [sp, #36]	@ 0x24
10000e96:	4b6b      	ldr	r3, [pc, #428]	@ (10001044 <text_scroll_v+0x4c4>)
10000e98:	486b      	ldr	r0, [pc, #428]	@ (10001048 <text_scroll_v+0x4c8>)
10000e9a:	9305      	str	r3, [sp, #20]
10000e9c:	881b      	ldrh	r3, [r3, #0]
10000e9e:	e9cd 410b 	strd	r4, r1, [sp, #44]	@ 0x2c
10000ea2:	9302      	str	r3, [sp, #8]
10000ea4:	1983      	adds	r3, r0, r6
10000ea6:	9503      	str	r5, [sp, #12]
10000ea8:	f04f 0a0f 	mov.w	sl, #15
10000eac:	4634      	mov	r4, r6
10000eae:	461d      	mov	r5, r3
10000eb0:	9006      	str	r0, [sp, #24]
10000eb2:	920a      	str	r2, [sp, #40]	@ 0x28
10000eb4:	970d      	str	r7, [sp, #52]	@ 0x34
10000eb6:	f8cd 9038 	str.w	r9, [sp, #56]	@ 0x38
10000eba:	9b09      	ldr	r3, [sp, #36]	@ 0x24
10000ebc:	465a      	mov	r2, fp
10000ebe:	18e9      	adds	r1, r5, r3
10000ec0:	4628      	mov	r0, r5
10000ec2:	18e6      	adds	r6, r4, r3
10000ec4:	f003 fbc8 	bl	10004658 <memcpy>
10000ec8:	4262      	negs	r2, r4
10000eca:	f002 0207 	and.w	r2, r2, #7
10000ece:	f004 0307 	and.w	r3, r4, #7
10000ed2:	bf58      	it	pl
10000ed4:	4253      	negpl	r3, r2
10000ed6:	4622      	mov	r2, r4
10000ed8:	2c00      	cmp	r4, #0
10000eda:	bfb8      	it	lt
10000edc:	1de2      	addlt	r2, r4, #7
10000ede:	4270      	negs	r0, r6
10000ee0:	f000 0007 	and.w	r0, r0, #7
10000ee4:	f006 0107 	and.w	r1, r6, #7
10000ee8:	bf58      	it	pl
10000eea:	4241      	negpl	r1, r0
10000eec:	2e00      	cmp	r6, #0
10000eee:	bfb8      	it	lt
10000ef0:	3607      	addlt	r6, #7
10000ef2:	009b      	lsls	r3, r3, #2
10000ef4:	10d2      	asrs	r2, r2, #3
10000ef6:	ea4f 0981 	mov.w	r9, r1, lsl #2
10000efa:	ea4f 0ee6 	mov.w	lr, r6, asr #3
10000efe:	f1bb 0f00 	cmp.w	fp, #0
10000f02:	d047      	beq.n	10000f94 <text_scroll_v+0x414>
10000f04:	f04f 0803 	mov.w	r8, #3
10000f08:	e9cd 3900 	strd	r3, r9, [sp]
10000f0c:	4f4f      	ldr	r7, [pc, #316]	@ (1000104c <text_scroll_v+0x4cc>)
10000f0e:	eba2 060e 	sub.w	r6, r2, lr
10000f12:	9407      	str	r4, [sp, #28]
10000f14:	9508      	str	r5, [sp, #32]
10000f16:	4658      	mov	r0, fp
10000f18:	e9dd 2100 	ldrd	r2, r1, [sp]
10000f1c:	46f4      	mov	ip, lr
10000f1e:	2807      	cmp	r0, #7
10000f20:	f857 302c 	ldr.w	r3, [r7, ip, lsl #2]
10000f24:	eb0e 0406 	add.w	r4, lr, r6
10000f28:	dd10      	ble.n	10000f4c <text_scroll_v+0x3cc>
10000f2a:	b979      	cbnz	r1, 10000f4c <text_scroll_v+0x3cc>
10000f2c:	2a00      	cmp	r2, #0
10000f2e:	d15f      	bne.n	10000ff0 <text_scroll_v+0x470>
10000f30:	3807      	subs	r0, #7
10000f32:	3801      	subs	r0, #1
10000f34:	f10c 0c01 	add.w	ip, ip, #1
10000f38:	f104 0501 	add.w	r5, r4, #1
10000f3c:	f847 3024 	str.w	r3, [r7, r4, lsl #2]
10000f40:	d021      	beq.n	10000f86 <text_scroll_v+0x406>
10000f42:	462c      	mov	r4, r5
10000f44:	2807      	cmp	r0, #7
10000f46:	f857 302c 	ldr.w	r3, [r7, ip, lsl #2]
10000f4a:	dcee      	bgt.n	10000f2a <text_scroll_v+0x3aa>
10000f4c:	fa0a f901 	lsl.w	r9, sl, r1
10000f50:	f857 5024 	ldr.w	r5, [r7, r4, lsl #2]
10000f54:	3104      	adds	r1, #4
10000f56:	291c      	cmp	r1, #28
10000f58:	ea09 0303 	and.w	r3, r9, r3
10000f5c:	fa0a f902 	lsl.w	r9, sl, r2
10000f60:	f102 0204 	add.w	r2, r2, #4
10000f64:	ea25 0509 	bic.w	r5, r5, r9
10000f68:	bf84      	itt	hi
10000f6a:	2100      	movhi	r1, #0
10000f6c:	f10c 0c01 	addhi.w	ip, ip, #1
10000f70:	2a1c      	cmp	r2, #28
10000f72:	ea43 0305 	orr.w	r3, r3, r5
10000f76:	bf8a      	itet	hi
10000f78:	2200      	movhi	r2, #0
10000f7a:	4625      	movls	r5, r4
10000f7c:	1c65      	addhi	r5, r4, #1
10000f7e:	3801      	subs	r0, #1
10000f80:	f847 3024 	str.w	r3, [r7, r4, lsl #2]
10000f84:	d1dd      	bne.n	10000f42 <text_scroll_v+0x3c2>
10000f86:	9b02      	ldr	r3, [sp, #8]
10000f88:	f1b8 0801 	subs.w	r8, r8, #1
10000f8c:	449e      	add	lr, r3
10000f8e:	d1c2      	bne.n	10000f16 <text_scroll_v+0x396>
10000f90:	e9dd 4507 	ldrd	r4, r5, [sp, #28]
10000f94:	9a04      	ldr	r2, [sp, #16]
10000f96:	9b03      	ldr	r3, [sp, #12]
10000f98:	1aa4      	subs	r4, r4, r2
10000f9a:	1aad      	subs	r5, r5, r2
10000f9c:	9a0a      	ldr	r2, [sp, #40]	@ 0x28
10000f9e:	3301      	adds	r3, #1
10000fa0:	429a      	cmp	r2, r3
10000fa2:	9303      	str	r3, [sp, #12]
10000fa4:	d189      	bne.n	10000eba <text_scroll_v+0x33a>
10000fa6:	e9dd 410b 	ldrd	r4, r1, [sp, #44]	@ 0x2c
10000faa:	e9dd 790d 	ldrd	r7, r9, [sp, #52]	@ 0x34
10000fae:	e6b1      	b.n	10000d14 <text_scroll_v+0x194>
10000fb0:	4607      	mov	r7, r0
10000fb2:	e6fc      	b.n	10000dae <text_scroll_v+0x22e>
10000fb4:	f856 5024 	ldr.w	r5, [r6, r4, lsl #2]
10000fb8:	fa0a f902 	lsl.w	r9, sl, r2
10000fbc:	f003 030f 	and.w	r3, r3, #15
10000fc0:	ea25 0509 	bic.w	r5, r5, r9
10000fc4:	3204      	adds	r2, #4
10000fc6:	431d      	orrs	r5, r3
10000fc8:	2a1c      	cmp	r2, #28
10000fca:	f846 5024 	str.w	r5, [r6, r4, lsl #2]
10000fce:	d90a      	bls.n	10000fe6 <text_scroll_v+0x466>
10000fd0:	1c65      	adds	r5, r4, #1
10000fd2:	460a      	mov	r2, r1
10000fd4:	462c      	mov	r4, r5
10000fd6:	2104      	movs	r1, #4
10000fd8:	3801      	subs	r0, #1
10000fda:	e65e      	b.n	10000c9a <text_scroll_v+0x11a>
10000fdc:	f04f 3211 	mov.w	r2, #286331153	@ 0x11111111
10000fe0:	fb02 f60c 	mul.w	r6, r2, ip
10000fe4:	e6e0      	b.n	10000da8 <text_scroll_v+0x228>
10000fe6:	2104      	movs	r1, #4
10000fe8:	f856 302c 	ldr.w	r3, [r6, ip, lsl #2]
10000fec:	3801      	subs	r0, #1
10000fee:	e658      	b.n	10000ca2 <text_scroll_v+0x122>
10000ff0:	f857 5024 	ldr.w	r5, [r7, r4, lsl #2]
10000ff4:	fa0a f902 	lsl.w	r9, sl, r2
10000ff8:	f003 030f 	and.w	r3, r3, #15
10000ffc:	ea25 0509 	bic.w	r5, r5, r9
10001000:	3204      	adds	r2, #4
10001002:	431d      	orrs	r5, r3
10001004:	2a1c      	cmp	r2, #28
10001006:	f847 5024 	str.w	r5, [r7, r4, lsl #2]
1000100a:	d905      	bls.n	10001018 <text_scroll_v+0x498>
1000100c:	1c65      	adds	r5, r4, #1
1000100e:	460a      	mov	r2, r1
10001010:	462c      	mov	r4, r5
10001012:	2104      	movs	r1, #4
10001014:	3801      	subs	r0, #1
10001016:	e795      	b.n	10000f44 <text_scroll_v+0x3c4>
10001018:	2104      	movs	r1, #4
1000101a:	f857 302c 	ldr.w	r3, [r7, ip, lsl #2]
1000101e:	3801      	subs	r0, #1
10001020:	e794      	b.n	10000f4c <text_scroll_v+0x3cc>
10001022:	4a0b      	ldr	r2, [pc, #44]	@ (10001050 <text_scroll_v+0x4d0>)
10001024:	4b0b      	ldr	r3, [pc, #44]	@ (10001054 <text_scroll_v+0x4d4>)
10001026:	7812      	ldrb	r2, [r2, #0]
10001028:	701a      	strb	r2, [r3, #0]
1000102a:	e708      	b.n	10000e3e <text_scroll_v+0x2be>
1000102c:	4b05      	ldr	r3, [pc, #20]	@ (10001044 <text_scroll_v+0x4c4>)
1000102e:	9305      	str	r3, [sp, #20]
10001030:	4b05      	ldr	r3, [pc, #20]	@ (10001048 <text_scroll_v+0x4c8>)
10001032:	9306      	str	r3, [sp, #24]
10001034:	e66e      	b.n	10000d14 <text_scroll_v+0x194>
10001036:	4b03      	ldr	r3, [pc, #12]	@ (10001044 <text_scroll_v+0x4c4>)
10001038:	9a04      	ldr	r2, [sp, #16]
1000103a:	9305      	str	r3, [sp, #20]
1000103c:	4b02      	ldr	r3, [pc, #8]	@ (10001048 <text_scroll_v+0x4c8>)
1000103e:	9306      	str	r3, [sp, #24]
10001040:	e663      	b.n	10000d0a <text_scroll_v+0x18a>
10001042:	bf00      	nop
10001044:	200094f6 	.word	0x200094f6
10001048:	20006f70 	.word	0x20006f70
1000104c:	200019b8 	.word	0x200019b8
10001050:	200094fd 	.word	0x200094fd
10001054:	20009507 	.word	0x20009507

10001058 <text_printc>:
10001058:	2900      	cmp	r1, #0
1000105a:	f000 8142 	beq.w	100012e2 <text_printc+0x28a>
1000105e:	e92d 4ff0 	stmdb	sp!, {r4, r5, r6, r7, r8, r9, sl, fp, lr}
10001062:	1843      	adds	r3, r0, r1
10001064:	b087      	sub	sp, #28
10001066:	4604      	mov	r4, r0
10001068:	f04f 090f 	mov.w	r9, #15
1000106c:	9301      	str	r3, [sp, #4]
1000106e:	e07c      	b.n	1000116a <text_printc+0x112>
10001070:	2b0a      	cmp	r3, #10
10001072:	f000 8089 	beq.w	10001188 <text_printc+0x130>
10001076:	2b0c      	cmp	r3, #12
10001078:	f000 8119 	beq.w	100012ae <text_printc+0x256>
1000107c:	4999      	ldr	r1, [pc, #612]	@ (100012e4 <text_printc+0x28c>)
1000107e:	4a9a      	ldr	r2, [pc, #616]	@ (100012e8 <text_printc+0x290>)
10001080:	780d      	ldrb	r5, [r1, #0]
10001082:	7812      	ldrb	r2, [r2, #0]
10001084:	42aa      	cmp	r2, r5
10001086:	d254      	bcs.n	10001132 <text_printc+0xda>
10001088:	4998      	ldr	r1, [pc, #608]	@ (100012ec <text_printc+0x294>)
1000108a:	4899      	ldr	r0, [pc, #612]	@ (100012f0 <text_printc+0x298>)
1000108c:	7809      	ldrb	r1, [r1, #0]
1000108e:	7800      	ldrb	r0, [r0, #0]
10001090:	4281      	cmp	r1, r0
10001092:	d24e      	bcs.n	10001132 <text_printc+0xda>
10001094:	fb01 2505 	mla	r5, r1, r5, r2
10001098:	4a96      	ldr	r2, [pc, #600]	@ (100012f4 <text_printc+0x29c>)
1000109a:	f005 0607 	and.w	r6, r5, #7
1000109e:	5553      	strb	r3, [r2, r5]
100010a0:	4b95      	ldr	r3, [pc, #596]	@ (100012f8 <text_printc+0x2a0>)
100010a2:	08ed      	lsrs	r5, r5, #3
100010a4:	781f      	ldrb	r7, [r3, #0]
100010a6:	4b95      	ldr	r3, [pc, #596]	@ (100012fc <text_printc+0x2a4>)
100010a8:	00b6      	lsls	r6, r6, #2
100010aa:	7818      	ldrb	r0, [r3, #0]
100010ac:	f7ff f9b4 	bl	10000418 <rgb_gbr>
100010b0:	4680      	mov	r8, r0
100010b2:	4638      	mov	r0, r7
100010b4:	f7ff f9b0 	bl	10000418 <rgb_gbr>
100010b8:	4601      	mov	r1, r0
100010ba:	4b91      	ldr	r3, [pc, #580]	@ (10001300 <text_printc+0x2a8>)
100010bc:	4a91      	ldr	r2, [pc, #580]	@ (10001304 <text_printc+0x2ac>)
100010be:	f008 0a03 	and.w	sl, r8, #3
100010c2:	f3c8 0e81 	ubfx	lr, r8, #2, #2
100010c6:	f3c8 1801 	ubfx	r8, r8, #4, #2
100010ca:	f8cd 8008 	str.w	r8, [sp, #8]
100010ce:	ea4f 0881 	mov.w	r8, r1, lsl #2
100010d2:	8817      	ldrh	r7, [r2, #0]
100010d4:	f008 080c 	and.w	r8, r8, #12
100010d8:	f853 2025 	ldr.w	r2, [r3, r5, lsl #2]
100010dc:	fa09 f006 	lsl.w	r0, r9, r6
100010e0:	ea48 080a 	orr.w	r8, r8, sl
100010e4:	ea22 0b00 	bic.w	fp, r2, r0
100010e8:	fa08 f806 	lsl.w	r8, r8, r6
100010ec:	ea48 080b 	orr.w	r8, r8, fp
100010f0:	f843 8025 	str.w	r8, [r3, r5, lsl #2]
100010f4:	eb05 0c07 	add.w	ip, r5, r7
100010f8:	f853 502c 	ldr.w	r5, [r3, ip, lsl #2]
100010fc:	4467      	add	r7, ip
100010fe:	ea25 0800 	bic.w	r8, r5, r0
10001102:	f001 050c 	and.w	r5, r1, #12
10001106:	ea45 050e 	orr.w	r5, r5, lr
1000110a:	40b5      	lsls	r5, r6
1000110c:	ea45 0508 	orr.w	r5, r5, r8
10001110:	f843 502c 	str.w	r5, [r3, ip, lsl #2]
10001114:	0889      	lsrs	r1, r1, #2
10001116:	9d02      	ldr	r5, [sp, #8]
10001118:	f001 010c 	and.w	r1, r1, #12
1000111c:	4329      	orrs	r1, r5
1000111e:	f853 5027 	ldr.w	r5, [r3, r7, lsl #2]
10001122:	4a71      	ldr	r2, [pc, #452]	@ (100012e8 <text_printc+0x290>)
10001124:	40b1      	lsls	r1, r6
10001126:	ea25 0500 	bic.w	r5, r5, r0
1000112a:	4329      	orrs	r1, r5
1000112c:	7812      	ldrb	r2, [r2, #0]
1000112e:	f843 1027 	str.w	r1, [r3, r7, lsl #2]
10001132:	4b75      	ldr	r3, [pc, #468]	@ (10001308 <text_printc+0x2b0>)
10001134:	4975      	ldr	r1, [pc, #468]	@ (1000130c <text_printc+0x2b4>)
10001136:	781b      	ldrb	r3, [r3, #0]
10001138:	7809      	ldrb	r1, [r1, #0]
1000113a:	3201      	adds	r2, #1
1000113c:	b2d2      	uxtb	r2, r2
1000113e:	4e6a      	ldr	r6, [pc, #424]	@ (100012e8 <text_printc+0x290>)
10001140:	440b      	add	r3, r1
10001142:	429a      	cmp	r2, r3
10001144:	7032      	strb	r2, [r6, #0]
10001146:	db0d      	blt.n	10001164 <text_printc+0x10c>
10001148:	4868      	ldr	r0, [pc, #416]	@ (100012ec <text_printc+0x294>)
1000114a:	4a71      	ldr	r2, [pc, #452]	@ (10001310 <text_printc+0x2b8>)
1000114c:	4d71      	ldr	r5, [pc, #452]	@ (10001314 <text_printc+0x2bc>)
1000114e:	7803      	ldrb	r3, [r0, #0]
10001150:	7812      	ldrb	r2, [r2, #0]
10001152:	782d      	ldrb	r5, [r5, #0]
10001154:	3301      	adds	r3, #1
10001156:	b2db      	uxtb	r3, r3
10001158:	442a      	add	r2, r5
1000115a:	4293      	cmp	r3, r2
1000115c:	7031      	strb	r1, [r6, #0]
1000115e:	7003      	strb	r3, [r0, #0]
10001160:	f280 80b7 	bge.w	100012d2 <text_printc+0x27a>
10001164:	9b01      	ldr	r3, [sp, #4]
10001166:	42a3      	cmp	r3, r4
10001168:	d00b      	beq.n	10001182 <text_printc+0x12a>
1000116a:	f814 3b01 	ldrb.w	r3, [r4], #1
1000116e:	2b0d      	cmp	r3, #13
10001170:	f47f af7e 	bne.w	10001070 <text_printc+0x18>
10001174:	4b65      	ldr	r3, [pc, #404]	@ (1000130c <text_printc+0x2b4>)
10001176:	4a5c      	ldr	r2, [pc, #368]	@ (100012e8 <text_printc+0x290>)
10001178:	781b      	ldrb	r3, [r3, #0]
1000117a:	7013      	strb	r3, [r2, #0]
1000117c:	9b01      	ldr	r3, [sp, #4]
1000117e:	42a3      	cmp	r3, r4
10001180:	d1f3      	bne.n	1000116a <text_printc+0x112>
10001182:	b007      	add	sp, #28
10001184:	e8bd 8ff0 	ldmia.w	sp!, {r4, r5, r6, r7, r8, r9, sl, fp, pc}
10001188:	4b57      	ldr	r3, [pc, #348]	@ (100012e8 <text_printc+0x290>)
1000118a:	485a      	ldr	r0, [pc, #360]	@ (100012f4 <text_printc+0x29c>)
1000118c:	781a      	ldrb	r2, [r3, #0]
1000118e:	4b55      	ldr	r3, [pc, #340]	@ (100012e4 <text_printc+0x28c>)
10001190:	781f      	ldrb	r7, [r3, #0]
10001192:	4b56      	ldr	r3, [pc, #344]	@ (100012ec <text_printc+0x294>)
10001194:	781b      	ldrb	r3, [r3, #0]
10001196:	fb03 2707 	mla	r7, r3, r7, r2
1000119a:	4b5b      	ldr	r3, [pc, #364]	@ (10001308 <text_printc+0x2b0>)
1000119c:	4438      	add	r0, r7
1000119e:	7819      	ldrb	r1, [r3, #0]
100011a0:	4b5a      	ldr	r3, [pc, #360]	@ (1000130c <text_printc+0x2b4>)
100011a2:	781b      	ldrb	r3, [r3, #0]
100011a4:	440b      	add	r3, r1
100011a6:	1a9a      	subs	r2, r3, r2
100011a8:	4b53      	ldr	r3, [pc, #332]	@ (100012f8 <text_printc+0x2a0>)
100011aa:	2100      	movs	r1, #0
100011ac:	781d      	ldrb	r5, [r3, #0]
100011ae:	4b53      	ldr	r3, [pc, #332]	@ (100012fc <text_printc+0x2a4>)
100011b0:	4693      	mov	fp, r2
100011b2:	781e      	ldrb	r6, [r3, #0]
100011b4:	9203      	str	r2, [sp, #12]
100011b6:	f002 fdab 	bl	10003d10 <memset>
100011ba:	f007 0307 	and.w	r3, r7, #7
100011be:	009b      	lsls	r3, r3, #2
100011c0:	4630      	mov	r0, r6
100011c2:	9304      	str	r3, [sp, #16]
100011c4:	f7ff f928 	bl	10000418 <rgb_gbr>
100011c8:	4680      	mov	r8, r0
100011ca:	4628      	mov	r0, r5
100011cc:	f7ff f924 	bl	10000418 <rgb_gbr>
100011d0:	465a      	mov	r2, fp
100011d2:	4b4c      	ldr	r3, [pc, #304]	@ (10001304 <text_printc+0x2ac>)
100011d4:	2a00      	cmp	r2, #0
100011d6:	4682      	mov	sl, r0
100011d8:	f8b3 c000 	ldrh.w	ip, [r3]
100011dc:	ea4f 07e7 	mov.w	r7, r7, asr #3
100011e0:	dd44      	ble.n	1000126c <text_printc+0x214>
100011e2:	f04f 0b03 	mov.w	fp, #3
100011e6:	463d      	mov	r5, r7
100011e8:	4626      	mov	r6, r4
100011ea:	4b45      	ldr	r3, [pc, #276]	@ (10001300 <text_printc+0x2a8>)
100011ec:	f8cd c014 	str.w	ip, [sp, #20]
100011f0:	ea4f 0c8a 	mov.w	ip, sl, lsl #2
100011f4:	f008 0203 	and.w	r2, r8, #3
100011f8:	f00c 0c0c 	and.w	ip, ip, #12
100011fc:	ea4c 0c02 	orr.w	ip, ip, r2
10001200:	462c      	mov	r4, r5
10001202:	e9dd 0203 	ldrd	r0, r2, [sp, #12]
10001206:	2700      	movs	r7, #0
10001208:	f8cd b008 	str.w	fp, [sp, #8]
1000120c:	e00b      	b.n	10001226 <text_printc+0x1ce>
1000120e:	b982      	cbnz	r2, 10001232 <text_printc+0x1da>
10001210:	2f00      	cmp	r7, #0
10001212:	d047      	beq.n	100012a4 <text_printc+0x24c>
10001214:	4639      	mov	r1, r7
10001216:	f104 0e01 	add.w	lr, r4, #1
1000121a:	3807      	subs	r0, #7
1000121c:	3801      	subs	r0, #1
1000121e:	f843 1024 	str.w	r1, [r3, r4, lsl #2]
10001222:	d017      	beq.n	10001254 <text_printc+0x1fc>
10001224:	4674      	mov	r4, lr
10001226:	2807      	cmp	r0, #7
10001228:	fa09 fe02 	lsl.w	lr, r9, r2
1000122c:	fa0c fb02 	lsl.w	fp, ip, r2
10001230:	dced      	bgt.n	1000120e <text_printc+0x1b6>
10001232:	f853 1024 	ldr.w	r1, [r3, r4, lsl #2]
10001236:	3204      	adds	r2, #4
10001238:	ea21 010e 	bic.w	r1, r1, lr
1000123c:	2a1c      	cmp	r2, #28
1000123e:	ea41 010b 	orr.w	r1, r1, fp
10001242:	d92d      	bls.n	100012a0 <text_printc+0x248>
10001244:	3801      	subs	r0, #1
10001246:	f04f 0200 	mov.w	r2, #0
1000124a:	f104 0e01 	add.w	lr, r4, #1
1000124e:	f843 1024 	str.w	r1, [r3, r4, lsl #2]
10001252:	d1e7      	bne.n	10001224 <text_printc+0x1cc>
10001254:	f8dd b008 	ldr.w	fp, [sp, #8]
10001258:	9a05      	ldr	r2, [sp, #20]
1000125a:	f1bb 0b01 	subs.w	fp, fp, #1
1000125e:	f3c8 0887 	ubfx	r8, r8, #2, #8
10001262:	f3ca 0a87 	ubfx	sl, sl, #2, #8
10001266:	4415      	add	r5, r2
10001268:	d1c2      	bne.n	100011f0 <text_printc+0x198>
1000126a:	4634      	mov	r4, r6
1000126c:	4b28      	ldr	r3, [pc, #160]	@ (10001310 <text_printc+0x2b8>)
1000126e:	491f      	ldr	r1, [pc, #124]	@ (100012ec <text_printc+0x294>)
10001270:	781a      	ldrb	r2, [r3, #0]
10001272:	4b28      	ldr	r3, [pc, #160]	@ (10001314 <text_printc+0x2bc>)
10001274:	481c      	ldr	r0, [pc, #112]	@ (100012e8 <text_printc+0x290>)
10001276:	781b      	ldrb	r3, [r3, #0]
10001278:	441a      	add	r2, r3
1000127a:	780b      	ldrb	r3, [r1, #0]
1000127c:	3301      	adds	r3, #1
1000127e:	b2db      	uxtb	r3, r3
10001280:	700b      	strb	r3, [r1, #0]
10001282:	4922      	ldr	r1, [pc, #136]	@ (1000130c <text_printc+0x2b4>)
10001284:	4293      	cmp	r3, r2
10001286:	7809      	ldrb	r1, [r1, #0]
10001288:	7001      	strb	r1, [r0, #0]
1000128a:	f6ff af6b 	blt.w	10001164 <text_printc+0x10c>
1000128e:	4b17      	ldr	r3, [pc, #92]	@ (100012ec <text_printc+0x294>)
10001290:	3a01      	subs	r2, #1
10001292:	701a      	strb	r2, [r3, #0]
10001294:	2201      	movs	r2, #1
10001296:	4820      	ldr	r0, [pc, #128]	@ (10001318 <text_printc+0x2c0>)
10001298:	4611      	mov	r1, r2
1000129a:	f7ff fc71 	bl	10000b80 <text_scroll_v>
1000129e:	e761      	b.n	10001164 <text_printc+0x10c>
100012a0:	46a6      	mov	lr, r4
100012a2:	e7bb      	b.n	1000121c <text_printc+0x1c4>
100012a4:	f04f 3111 	mov.w	r1, #286331153	@ 0x11111111
100012a8:	fb01 f70c 	mul.w	r7, r1, ip
100012ac:	e7b2      	b.n	10001214 <text_printc+0x1bc>
100012ae:	2100      	movs	r1, #0
100012b0:	2201      	movs	r2, #1
100012b2:	4608      	mov	r0, r1
100012b4:	f7ff fb9a 	bl	100009ec <text_clear>
100012b8:	4b15      	ldr	r3, [pc, #84]	@ (10001310 <text_printc+0x2b8>)
100012ba:	4a16      	ldr	r2, [pc, #88]	@ (10001314 <text_printc+0x2bc>)
100012bc:	781b      	ldrb	r3, [r3, #0]
100012be:	7812      	ldrb	r2, [r2, #0]
100012c0:	4413      	add	r3, r2
100012c2:	4a0a      	ldr	r2, [pc, #40]	@ (100012ec <text_printc+0x294>)
100012c4:	3b01      	subs	r3, #1
100012c6:	7013      	strb	r3, [r2, #0]
100012c8:	4b10      	ldr	r3, [pc, #64]	@ (1000130c <text_printc+0x2b4>)
100012ca:	4a07      	ldr	r2, [pc, #28]	@ (100012e8 <text_printc+0x290>)
100012cc:	781b      	ldrb	r3, [r3, #0]
100012ce:	7013      	strb	r3, [r2, #0]
100012d0:	e754      	b.n	1000117c <text_printc+0x124>
100012d2:	3a01      	subs	r2, #1
100012d4:	7002      	strb	r2, [r0, #0]
100012d6:	2201      	movs	r2, #1
100012d8:	480f      	ldr	r0, [pc, #60]	@ (10001318 <text_printc+0x2c0>)
100012da:	4611      	mov	r1, r2
100012dc:	f7ff fc50 	bl	10000b80 <text_scroll_v>
100012e0:	e740      	b.n	10001164 <text_printc+0x10c>
100012e2:	4770      	bx	lr
100012e4:	200094fe 	.word	0x200094fe
100012e8:	20009506 	.word	0x20009506
100012ec:	20009507 	.word	0x20009507
100012f0:	200094ff 	.word	0x200094ff
100012f4:	20006f70 	.word	0x20006f70
100012f8:	20000ab9 	.word	0x20000ab9
100012fc:	20000ab8 	.word	0x20000ab8
10001300:	200019b8 	.word	0x200019b8
10001304:	200094f6 	.word	0x200094f6
10001308:	20000abb 	.word	0x20000abb
1000130c:	200094fc 	.word	0x200094fc
10001310:	200094fd 	.word	0x200094fd
10001314:	20000aba 	.word	0x20000aba
10001318:	10004934 	.word	0x10004934

1000131c <text_reset>:
1000131c:	b171      	cbz	r1, 1000133c <text_reset+0x20>
1000131e:	e92d 47f0 	stmdb	sp!, {r4, r5, r6, r7, r8, r9, sl, lr}
10001322:	7803      	ldrb	r3, [r0, #0]
10001324:	b15b      	cbz	r3, 1000133e <text_reset+0x22>
10001326:	2b01      	cmp	r3, #1
10001328:	d05d      	beq.n	100013e6 <text_reset+0xca>
1000132a:	2b10      	cmp	r3, #16
1000132c:	d069      	beq.n	10001402 <text_reset+0xe6>
1000132e:	2b11      	cmp	r3, #17
10001330:	d075      	beq.n	1000141e <text_reset+0x102>
10001332:	2b20      	cmp	r3, #32
10001334:	f000 8081 	beq.w	1000143a <text_reset+0x11e>
10001338:	e8bd 87f0 	ldmia.w	sp!, {r4, r5, r6, r7, r8, r9, sl, pc}
1000133c:	4770      	bx	lr
1000133e:	f44f 5280 	mov.w	r2, #4096	@ 0x1000
10001342:	f44f 7596 	mov.w	r5, #300	@ 0x12c
10001346:	231e      	movs	r3, #30
10001348:	200e      	movs	r0, #14
1000134a:	f04f 0c0d 	mov.w	ip, #13
1000134e:	2720      	movs	r7, #32
10001350:	f04f 0810 	mov.w	r8, #16
10001354:	4616      	mov	r6, r2
10001356:	4940      	ldr	r1, [pc, #256]	@ (10001458 <text_reset+0x13c>)
10001358:	f04f 0a08 	mov.w	sl, #8
1000135c:	f04f 0e50 	mov.w	lr, #80	@ 0x50
10001360:	2400      	movs	r4, #0
10001362:	f8df 9144 	ldr.w	r9, [pc, #324]	@ 100014a8 <text_reset+0x18c>
10001366:	f889 a000 	strb.w	sl, [r9]
1000136a:	f8df 9140 	ldr.w	r9, [pc, #320]	@ 100014ac <text_reset+0x190>
1000136e:	f889 8000 	strb.w	r8, [r9]
10001372:	f8df 813c 	ldr.w	r8, [pc, #316]	@ 100014b0 <text_reset+0x194>
10001376:	f888 7000 	strb.w	r7, [r8]
1000137a:	4f38      	ldr	r7, [pc, #224]	@ (1000145c <text_reset+0x140>)
1000137c:	f8df 8134 	ldr.w	r8, [pc, #308]	@ 100014b4 <text_reset+0x198>
10001380:	f887 c000 	strb.w	ip, [r7]
10001384:	4f36      	ldr	r7, [pc, #216]	@ (10001460 <text_reset+0x144>)
10001386:	f888 4000 	strb.w	r4, [r8]
1000138a:	f887 c000 	strb.w	ip, [r7]
1000138e:	4f35      	ldr	r7, [pc, #212]	@ (10001464 <text_reset+0x148>)
10001390:	7038      	strb	r0, [r7, #0]
10001392:	4f35      	ldr	r7, [pc, #212]	@ (10001468 <text_reset+0x14c>)
10001394:	7038      	strb	r0, [r7, #0]
10001396:	4835      	ldr	r0, [pc, #212]	@ (1000146c <text_reset+0x150>)
10001398:	4f35      	ldr	r7, [pc, #212]	@ (10001470 <text_reset+0x154>)
1000139a:	8006      	strh	r6, [r0, #0]
1000139c:	4835      	ldr	r0, [pc, #212]	@ (10001474 <text_reset+0x158>)
1000139e:	4e36      	ldr	r6, [pc, #216]	@ (10001478 <text_reset+0x15c>)
100013a0:	f880 e000 	strb.w	lr, [r0]
100013a4:	4835      	ldr	r0, [pc, #212]	@ (1000147c <text_reset+0x160>)
100013a6:	7033      	strb	r3, [r6, #0]
100013a8:	7003      	strb	r3, [r0, #0]
100013aa:	4835      	ldr	r0, [pc, #212]	@ (10001480 <text_reset+0x164>)
100013ac:	4b35      	ldr	r3, [pc, #212]	@ (10001484 <text_reset+0x168>)
100013ae:	8005      	strh	r5, [r0, #0]
100013b0:	4d35      	ldr	r5, [pc, #212]	@ (10001488 <text_reset+0x16c>)
100013b2:	4836      	ldr	r0, [pc, #216]	@ (1000148c <text_reset+0x170>)
100013b4:	6019      	str	r1, [r3, #0]
100013b6:	f885 e000 	strb.w	lr, [r5]
100013ba:	703c      	strb	r4, [r7, #0]
100013bc:	f003 f94c 	bl	10004658 <memcpy>
100013c0:	2201      	movs	r2, #1
100013c2:	4621      	mov	r1, r4
100013c4:	4620      	mov	r0, r4
100013c6:	f7ff fb11 	bl	100009ec <text_clear>
100013ca:	782b      	ldrb	r3, [r5, #0]
100013cc:	2b00      	cmp	r3, #0
100013ce:	d0b3      	beq.n	10001338 <text_reset+0x1c>
100013d0:	7833      	ldrb	r3, [r6, #0]
100013d2:	2b00      	cmp	r3, #0
100013d4:	d0b0      	beq.n	10001338 <text_reset+0x1c>
100013d6:	492e      	ldr	r1, [pc, #184]	@ (10001490 <text_reset+0x174>)
100013d8:	f898 0000 	ldrb.w	r0, [r8]
100013dc:	4b2d      	ldr	r3, [pc, #180]	@ (10001494 <text_reset+0x178>)
100013de:	783a      	ldrb	r2, [r7, #0]
100013e0:	7008      	strb	r0, [r1, #0]
100013e2:	701a      	strb	r2, [r3, #0]
100013e4:	e7a8      	b.n	10001338 <text_reset+0x1c>
100013e6:	f44f 5280 	mov.w	r2, #4096	@ 0x1000
100013ea:	f44f 7596 	mov.w	r5, #300	@ 0x12c
100013ee:	231e      	movs	r3, #30
100013f0:	200e      	movs	r0, #14
100013f2:	f04f 0c0d 	mov.w	ip, #13
100013f6:	2720      	movs	r7, #32
100013f8:	f04f 0810 	mov.w	r8, #16
100013fc:	4616      	mov	r6, r2
100013fe:	4926      	ldr	r1, [pc, #152]	@ (10001498 <text_reset+0x17c>)
10001400:	e7aa      	b.n	10001358 <text_reset+0x3c>
10001402:	f44f 6200 	mov.w	r2, #2048	@ 0x800
10001406:	f44f 7516 	mov.w	r5, #600	@ 0x258
1000140a:	233c      	movs	r3, #60	@ 0x3c
1000140c:	2007      	movs	r0, #7
1000140e:	f04f 0c06 	mov.w	ip, #6
10001412:	2720      	movs	r7, #32
10001414:	f04f 0808 	mov.w	r8, #8
10001418:	4616      	mov	r6, r2
1000141a:	4920      	ldr	r1, [pc, #128]	@ (1000149c <text_reset+0x180>)
1000141c:	e79c      	b.n	10001358 <text_reset+0x3c>
1000141e:	f44f 6200 	mov.w	r2, #2048	@ 0x800
10001422:	f44f 7516 	mov.w	r5, #600	@ 0x258
10001426:	233c      	movs	r3, #60	@ 0x3c
10001428:	2007      	movs	r0, #7
1000142a:	f04f 0c06 	mov.w	ip, #6
1000142e:	2720      	movs	r7, #32
10001430:	f04f 0808 	mov.w	r8, #8
10001434:	4616      	mov	r6, r2
10001436:	491a      	ldr	r1, [pc, #104]	@ (100014a0 <text_reset+0x184>)
10001438:	e78e      	b.n	10001358 <text_reset+0x3c>
1000143a:	f44f 6280 	mov.w	r2, #1024	@ 0x400
1000143e:	f44f 6596 	mov.w	r5, #1200	@ 0x4b0
10001442:	2378      	movs	r3, #120	@ 0x78
10001444:	2007      	movs	r0, #7
10001446:	f04f 0c00 	mov.w	ip, #0
1000144a:	270c      	movs	r7, #12
1000144c:	f04f 0804 	mov.w	r8, #4
10001450:	4616      	mov	r6, r2
10001452:	4914      	ldr	r1, [pc, #80]	@ (100014a4 <text_reset+0x188>)
10001454:	e780      	b.n	10001358 <text_reset+0x3c>
10001456:	bf00      	nop
10001458:	10007f18 	.word	0x10007f18
1000145c:	20009504 	.word	0x20009504
10001460:	20009501 	.word	0x20009501
10001464:	20009505 	.word	0x20009505
10001468:	20009502 	.word	0x20009502
1000146c:	200094f8 	.word	0x200094f8
10001470:	200094fd 	.word	0x200094fd
10001474:	200094fe 	.word	0x200094fe
10001478:	20000aba 	.word	0x20000aba
1000147c:	200094ff 	.word	0x200094ff
10001480:	200094f6 	.word	0x200094f6
10001484:	200094f0 	.word	0x200094f0
10001488:	20000abb 	.word	0x20000abb
1000148c:	20005f38 	.word	0x20005f38
10001490:	20009506 	.word	0x20009506
10001494:	20009507 	.word	0x20009507
10001498:	10006f18 	.word	0x10006f18
1000149c:	10006718 	.word	0x10006718
100014a0:	10005f18 	.word	0x10005f18
100014a4:	10005b18 	.word	0x10005b18
100014a8:	20009509 	.word	0x20009509
100014ac:	20009508 	.word	0x20009508
100014b0:	20009503 	.word	0x20009503
100014b4:	200094fc 	.word	0x200094fc

100014b8 <text_rasterize_screen>:
100014b8:	e92d 4ff0 	stmdb	sp!, {r4, r5, r6, r7, r8, r9, sl, fp, lr}
100014bc:	4a94      	ldr	r2, [pc, #592]	@ (10001710 <text_rasterize_screen+0x258>)
100014be:	4995      	ldr	r1, [pc, #596]	@ (10001714 <text_rasterize_screen+0x25c>)
100014c0:	7813      	ldrb	r3, [r2, #0]
100014c2:	7809      	ldrb	r1, [r1, #0]
100014c4:	3301      	adds	r3, #1
100014c6:	b2db      	uxtb	r3, r3
100014c8:	428b      	cmp	r3, r1
100014ca:	f2ad 4d2c 	subw	sp, sp, #1068	@ 0x42c
100014ce:	7013      	strb	r3, [r2, #0]
100014d0:	d368      	bcc.n	100015a4 <text_rasterize_screen+0xec>
100014d2:	2300      	movs	r3, #0
100014d4:	7013      	strb	r3, [r2, #0]
100014d6:	2900      	cmp	r1, #0
100014d8:	f000 810f 	beq.w	100016fa <text_rasterize_screen+0x242>
100014dc:	4a8e      	ldr	r2, [pc, #568]	@ (10001718 <text_rasterize_screen+0x260>)
100014de:	7813      	ldrb	r3, [r2, #0]
100014e0:	9203      	str	r2, [sp, #12]
100014e2:	fab3 f383 	clz	r3, r3
100014e6:	095b      	lsrs	r3, r3, #5
100014e8:	7013      	strb	r3, [r2, #0]
100014ea:	2b00      	cmp	r3, #0
100014ec:	d15f      	bne.n	100015ae <text_rasterize_screen+0xf6>
100014ee:	2500      	movs	r5, #0
100014f0:	26ff      	movs	r6, #255	@ 0xff
100014f2:	4f8a      	ldr	r7, [pc, #552]	@ (1000171c <text_rasterize_screen+0x264>)
100014f4:	9502      	str	r5, [sp, #8]
100014f6:	f897 8000 	ldrb.w	r8, [r7]
100014fa:	4633      	mov	r3, r6
100014fc:	fbb5 f4f8 	udiv	r4, r5, r8
10001500:	b2e6      	uxtb	r6, r4
10001502:	429e      	cmp	r6, r3
10001504:	d006      	beq.n	10001514 <text_rasterize_screen+0x5c>
10001506:	4b86      	ldr	r3, [pc, #536]	@ (10001720 <text_rasterize_screen+0x268>)
10001508:	781b      	ldrb	r3, [r3, #0]
1000150a:	1b9b      	subs	r3, r3, r6
1000150c:	fab3 f383 	clz	r3, r3
10001510:	095b      	lsrs	r3, r3, #5
10001512:	9302      	str	r3, [sp, #8]
10001514:	4883      	ldr	r0, [pc, #524]	@ (10001724 <text_rasterize_screen+0x26c>)
10001516:	a905      	add	r1, sp, #20
10001518:	f001 f806 	bl	10002528 <queue_remove_blocking>
1000151c:	9b02      	ldr	r3, [sp, #8]
1000151e:	2b00      	cmp	r3, #0
10001520:	f000 80bc 	beq.w	1000169c <text_rasterize_screen+0x1e4>
10001524:	9b03      	ldr	r3, [sp, #12]
10001526:	781b      	ldrb	r3, [r3, #0]
10001528:	2b00      	cmp	r3, #0
1000152a:	f000 80b7 	beq.w	1000169c <text_rasterize_screen+0x1e4>
1000152e:	4b7e      	ldr	r3, [pc, #504]	@ (10001728 <text_rasterize_screen+0x270>)
10001530:	781b      	ldrb	r3, [r3, #0]
10001532:	2b00      	cmp	r3, #0
10001534:	f000 80b2 	beq.w	1000169c <text_rasterize_screen+0x1e4>
10001538:	fb08 5414 	mls	r4, r8, r4, r5
1000153c:	4b7b      	ldr	r3, [pc, #492]	@ (1000172c <text_rasterize_screen+0x274>)
1000153e:	b2e4      	uxtb	r4, r4
10001540:	781b      	ldrb	r3, [r3, #0]
10001542:	42a3      	cmp	r3, r4
10001544:	f200 80aa 	bhi.w	1000169c <text_rasterize_screen+0x1e4>
10001548:	4b79      	ldr	r3, [pc, #484]	@ (10001730 <text_rasterize_screen+0x278>)
1000154a:	781b      	ldrb	r3, [r3, #0]
1000154c:	42a3      	cmp	r3, r4
1000154e:	f0c0 80a5 	bcc.w	1000169c <text_rasterize_screen+0x1e4>
10001552:	2400      	movs	r4, #0
10001554:	f10d 0968 	add.w	r9, sp, #104	@ 0x68
10001558:	f10d 0818 	add.w	r8, sp, #24
1000155c:	7839      	ldrb	r1, [r7, #0]
1000155e:	9a05      	ldr	r2, [sp, #20]
10001560:	fbb5 f3f1 	udiv	r3, r5, r1
10001564:	fb01 5313 	mls	r3, r1, r3, r5
10001568:	4972      	ldr	r1, [pc, #456]	@ (10001734 <text_rasterize_screen+0x27c>)
1000156a:	4422      	add	r2, r4
1000156c:	eb01 2303 	add.w	r3, r1, r3, lsl #8
10001570:	9300      	str	r3, [sp, #0]
10001572:	4649      	mov	r1, r9
10001574:	f44f 7320 	mov.w	r3, #640	@ 0x280
10001578:	4640      	mov	r0, r8
1000157a:	f504 64a0 	add.w	r4, r4, #1280	@ 0x500
1000157e:	f003 f98b 	bl	10004898 <__tmds_encode_font_2bpp_veneer>
10001582:	f5b4 6f70 	cmp.w	r4, #3840	@ 0xf00
10001586:	f509 79a0 	add.w	r9, r9, #320	@ 0x140
1000158a:	d1e7      	bne.n	1000155c <text_rasterize_screen+0xa4>
1000158c:	486a      	ldr	r0, [pc, #424]	@ (10001738 <text_rasterize_screen+0x280>)
1000158e:	a905      	add	r1, sp, #20
10001590:	3501      	adds	r5, #1
10001592:	f000 ff8b 	bl	100024ac <queue_add_blocking>
10001596:	f5b5 7ff0 	cmp.w	r5, #480	@ 0x1e0
1000159a:	d1ac      	bne.n	100014f6 <text_rasterize_screen+0x3e>
1000159c:	f20d 4d2c 	addw	sp, sp, #1068	@ 0x42c
100015a0:	e8bd 8ff0 	ldmia.w	sp!, {r4, r5, r6, r7, r8, r9, sl, fp, pc}
100015a4:	4b5c      	ldr	r3, [pc, #368]	@ (10001718 <text_rasterize_screen+0x260>)
100015a6:	9303      	str	r3, [sp, #12]
100015a8:	781b      	ldrb	r3, [r3, #0]
100015aa:	2b00      	cmp	r3, #0
100015ac:	d09f      	beq.n	100014ee <text_rasterize_screen+0x36>
100015ae:	4b5e      	ldr	r3, [pc, #376]	@ (10001728 <text_rasterize_screen+0x270>)
100015b0:	781b      	ldrb	r3, [r3, #0]
100015b2:	2b00      	cmp	r3, #0
100015b4:	d09b      	beq.n	100014ee <text_rasterize_screen+0x36>
100015b6:	4b61      	ldr	r3, [pc, #388]	@ (1000173c <text_rasterize_screen+0x284>)
100015b8:	4a59      	ldr	r2, [pc, #356]	@ (10001720 <text_rasterize_screen+0x268>)
100015ba:	781e      	ldrb	r6, [r3, #0]
100015bc:	7814      	ldrb	r4, [r2, #0]
100015be:	4960      	ldr	r1, [pc, #384]	@ (10001740 <text_rasterize_screen+0x288>)
100015c0:	f10d 0918 	add.w	r9, sp, #24
100015c4:	fb04 1106 	mla	r1, r4, r6, r1
100015c8:	4632      	mov	r2, r6
100015ca:	4648      	mov	r0, r9
100015cc:	f003 f844 	bl	10004658 <memcpy>
100015d0:	4b5c      	ldr	r3, [pc, #368]	@ (10001744 <text_rasterize_screen+0x28c>)
100015d2:	ad1a      	add	r5, sp, #104	@ 0x68
100015d4:	881f      	ldrh	r7, [r3, #0]
100015d6:	4b5c      	ldr	r3, [pc, #368]	@ (10001748 <text_rasterize_screen+0x290>)
100015d8:	0876      	lsrs	r6, r6, #1
100015da:	7819      	ldrb	r1, [r3, #0]
100015dc:	462b      	mov	r3, r5
100015de:	fbb7 f1f1 	udiv	r1, r7, r1
100015e2:	fb04 f101 	mul.w	r1, r4, r1
100015e6:	4c59      	ldr	r4, [pc, #356]	@ (1000174c <text_rasterize_screen+0x294>)
100015e8:	00bf      	lsls	r7, r7, #2
100015ea:	f50d 6885 	add.w	r8, sp, #1064	@ 0x428
100015ee:	eb04 0481 	add.w	r4, r4, r1, lsl #2
100015f2:	4621      	mov	r1, r4
100015f4:	4618      	mov	r0, r3
100015f6:	4632      	mov	r2, r6
100015f8:	f003 f82e 	bl	10004658 <memcpy>
100015fc:	f500 73a0 	add.w	r3, r0, #320	@ 0x140
10001600:	4543      	cmp	r3, r8
10001602:	443c      	add	r4, r7
10001604:	d1f5      	bne.n	100015f2 <text_rasterize_screen+0x13a>
10001606:	4a52      	ldr	r2, [pc, #328]	@ (10001750 <text_rasterize_screen+0x298>)
10001608:	4b52      	ldr	r3, [pc, #328]	@ (10001754 <text_rasterize_screen+0x29c>)
1000160a:	7814      	ldrb	r4, [r2, #0]
1000160c:	781b      	ldrb	r3, [r3, #0]
1000160e:	270f      	movs	r7, #15
10001610:	f809 3004 	strb.w	r3, [r9, r4]
10001614:	4b50      	ldr	r3, [pc, #320]	@ (10001758 <text_rasterize_screen+0x2a0>)
10001616:	f004 0607 	and.w	r6, r4, #7
1000161a:	7818      	ldrb	r0, [r3, #0]
1000161c:	f7fe fefc 	bl	10000418 <rgb_gbr>
10001620:	4b4e      	ldr	r3, [pc, #312]	@ (1000175c <text_rasterize_screen+0x2a4>)
10001622:	4680      	mov	r8, r0
10001624:	7818      	ldrb	r0, [r3, #0]
10001626:	f7fe fef7 	bl	10000418 <rgb_gbr>
1000162a:	4603      	mov	r3, r0
1000162c:	08e4      	lsrs	r4, r4, #3
1000162e:	ea4f 0983 	mov.w	r9, r3, lsl #2
10001632:	f855 2024 	ldr.w	r2, [r5, r4, lsl #2]
10001636:	00b6      	lsls	r6, r6, #2
10001638:	f008 0a03 	and.w	sl, r8, #3
1000163c:	f009 090c 	and.w	r9, r9, #12
10001640:	fa07 fe06 	lsl.w	lr, r7, r6
10001644:	ea49 090a 	orr.w	r9, r9, sl
10001648:	f104 0050 	add.w	r0, r4, #80	@ 0x50
1000164c:	f104 01a0 	add.w	r1, r4, #160	@ 0xa0
10001650:	ea22 0c0e 	bic.w	ip, r2, lr
10001654:	fa09 f906 	lsl.w	r9, r9, r6
10001658:	f855 2020 	ldr.w	r2, [r5, r0, lsl #2]
1000165c:	f855 7021 	ldr.w	r7, [r5, r1, lsl #2]
10001660:	ea49 0c0c 	orr.w	ip, r9, ip
10001664:	f845 c024 	str.w	ip, [r5, r4, lsl #2]
10001668:	089c      	lsrs	r4, r3, #2
1000166a:	ea22 020e 	bic.w	r2, r2, lr
1000166e:	ea27 070e 	bic.w	r7, r7, lr
10001672:	f003 030c 	and.w	r3, r3, #12
10001676:	f3c8 0e81 	ubfx	lr, r8, #2, #2
1000167a:	f004 040c 	and.w	r4, r4, #12
1000167e:	f3c8 1801 	ubfx	r8, r8, #4, #2
10001682:	ea43 030e 	orr.w	r3, r3, lr
10001686:	ea44 0408 	orr.w	r4, r4, r8
1000168a:	40b3      	lsls	r3, r6
1000168c:	40b4      	lsls	r4, r6
1000168e:	4313      	orrs	r3, r2
10001690:	433c      	orrs	r4, r7
10001692:	f845 3020 	str.w	r3, [r5, r0, lsl #2]
10001696:	f845 4021 	str.w	r4, [r5, r1, lsl #2]
1000169a:	e728      	b.n	100014ee <text_rasterize_screen+0x36>
1000169c:	2400      	movs	r4, #0
1000169e:	f8df b0a0 	ldr.w	fp, [pc, #160]	@ 10001740 <text_rasterize_screen+0x288>
100016a2:	f8df a0a0 	ldr.w	sl, [pc, #160]	@ 10001744 <text_rasterize_screen+0x28c>
100016a6:	f8df 90a0 	ldr.w	r9, [pc, #160]	@ 10001748 <text_rasterize_screen+0x290>
100016aa:	f8df 80a0 	ldr.w	r8, [pc, #160]	@ 1000174c <text_rasterize_screen+0x294>
100016ae:	f8ba 1000 	ldrh.w	r1, [sl]
100016b2:	f899 3000 	ldrb.w	r3, [r9]
100016b6:	783a      	ldrb	r2, [r7, #0]
100016b8:	fbb1 f3f3 	udiv	r3, r1, r3
100016bc:	fb04 f101 	mul.w	r1, r4, r1
100016c0:	fb06 1103 	mla	r1, r6, r3, r1
100016c4:	fbb5 f3f2 	udiv	r3, r5, r2
100016c8:	fb02 5313 	mls	r3, r2, r3, r5
100016cc:	4a19      	ldr	r2, [pc, #100]	@ (10001734 <text_rasterize_screen+0x27c>)
100016ce:	eb08 0181 	add.w	r1, r8, r1, lsl #2
100016d2:	eb02 2303 	add.w	r3, r2, r3, lsl #8
100016d6:	4a19      	ldr	r2, [pc, #100]	@ (1000173c <text_rasterize_screen+0x284>)
100016d8:	9300      	str	r3, [sp, #0]
100016da:	7810      	ldrb	r0, [r2, #0]
100016dc:	9b05      	ldr	r3, [sp, #20]
100016de:	eb04 0284 	add.w	r2, r4, r4, lsl #2
100016e2:	eb03 2202 	add.w	r2, r3, r2, lsl #8
100016e6:	fb06 b000 	mla	r0, r6, r0, fp
100016ea:	f44f 7320 	mov.w	r3, #640	@ 0x280
100016ee:	3401      	adds	r4, #1
100016f0:	f003 f8d2 	bl	10004898 <__tmds_encode_font_2bpp_veneer>
100016f4:	2c03      	cmp	r4, #3
100016f6:	d1da      	bne.n	100016ae <text_rasterize_screen+0x1f6>
100016f8:	e748      	b.n	1000158c <text_rasterize_screen+0xd4>
100016fa:	2301      	movs	r3, #1
100016fc:	4a06      	ldr	r2, [pc, #24]	@ (10001718 <text_rasterize_screen+0x260>)
100016fe:	7013      	strb	r3, [r2, #0]
10001700:	4b09      	ldr	r3, [pc, #36]	@ (10001728 <text_rasterize_screen+0x270>)
10001702:	9203      	str	r2, [sp, #12]
10001704:	781b      	ldrb	r3, [r3, #0]
10001706:	2b00      	cmp	r3, #0
10001708:	f43f aef1 	beq.w	100014ee <text_rasterize_screen+0x36>
1000170c:	e753      	b.n	100015b6 <text_rasterize_screen+0xfe>
1000170e:	bf00      	nop
10001710:	20009500 	.word	0x20009500
10001714:	20000abd 	.word	0x20000abd
10001718:	20000abc 	.word	0x20000abc
1000171c:	20009508 	.word	0x20009508
10001720:	20009507 	.word	0x20009507
10001724:	2000142c 	.word	0x2000142c
10001728:	20000abe 	.word	0x20000abe
1000172c:	20009504 	.word	0x20009504
10001730:	20009505 	.word	0x20009505
10001734:	20005f38 	.word	0x20005f38
10001738:	2000141c 	.word	0x2000141c
1000173c:	200094fe 	.word	0x200094fe
10001740:	20006f70 	.word	0x20006f70
10001744:	200094f6 	.word	0x200094f6
10001748:	200094ff 	.word	0x200094ff
1000174c:	200019b8 	.word	0x200019b8
10001750:	20009506 	.word	0x20009506
10001754:	20009503 	.word	0x20009503
10001758:	20000ab9 	.word	0x20000ab9
1000175c:	20000ab8 	.word	0x20000ab8

10001760 <text_init>:
10001760:	e92d 41f0 	stmdb	sp!, {r4, r5, r6, r7, r8, lr}
10001764:	2101      	movs	r1, #1
10001766:	2010      	movs	r0, #16
10001768:	2408      	movs	r4, #8
1000176a:	4a53      	ldr	r2, [pc, #332]	@ (100018b8 <text_init+0x158>)
1000176c:	f7fe fd82 	bl	10000274 <command_init>
10001770:	2101      	movs	r1, #1
10001772:	2012      	movs	r0, #18
10001774:	4a51      	ldr	r2, [pc, #324]	@ (100018bc <text_init+0x15c>)
10001776:	f7fe fd7d 	bl	10000274 <command_init>
1000177a:	2710      	movs	r7, #16
1000177c:	2101      	movs	r1, #1
1000177e:	2013      	movs	r0, #19
10001780:	4a4f      	ldr	r2, [pc, #316]	@ (100018c0 <text_init+0x160>)
10001782:	f7fe fd77 	bl	10000274 <command_init>
10001786:	2101      	movs	r1, #1
10001788:	2014      	movs	r0, #20
1000178a:	4a4e      	ldr	r2, [pc, #312]	@ (100018c4 <text_init+0x164>)
1000178c:	f7fe fd72 	bl	10000274 <command_init>
10001790:	2101      	movs	r1, #1
10001792:	2015      	movs	r0, #21
10001794:	4a4c      	ldr	r2, [pc, #304]	@ (100018c8 <text_init+0x168>)
10001796:	f7fe fd6d 	bl	10000274 <command_init>
1000179a:	2100      	movs	r1, #0
1000179c:	2016      	movs	r0, #22
1000179e:	4a4b      	ldr	r2, [pc, #300]	@ (100018cc <text_init+0x16c>)
100017a0:	f7fe fd68 	bl	10000274 <command_init>
100017a4:	2104      	movs	r1, #4
100017a6:	2017      	movs	r0, #23
100017a8:	4a49      	ldr	r2, [pc, #292]	@ (100018d0 <text_init+0x170>)
100017aa:	f7fe fd63 	bl	10000274 <command_init>
100017ae:	2102      	movs	r1, #2
100017b0:	2011      	movs	r0, #17
100017b2:	4a48      	ldr	r2, [pc, #288]	@ (100018d4 <text_init+0x174>)
100017b4:	f7fe fd5e 	bl	10000274 <command_init>
100017b8:	2100      	movs	r1, #0
100017ba:	2018      	movs	r0, #24
100017bc:	4a46      	ldr	r2, [pc, #280]	@ (100018d8 <text_init+0x178>)
100017be:	f7fe fd59 	bl	10000274 <command_init>
100017c2:	2100      	movs	r1, #0
100017c4:	2019      	movs	r0, #25
100017c6:	4a45      	ldr	r2, [pc, #276]	@ (100018dc <text_init+0x17c>)
100017c8:	f7fe fd54 	bl	10000274 <command_init>
100017cc:	2102      	movs	r1, #2
100017ce:	201a      	movs	r0, #26
100017d0:	4a43      	ldr	r2, [pc, #268]	@ (100018e0 <text_init+0x180>)
100017d2:	f7fe fd4f 	bl	10000274 <command_init>
100017d6:	2101      	movs	r1, #1
100017d8:	201b      	movs	r0, #27
100017da:	4a42      	ldr	r2, [pc, #264]	@ (100018e4 <text_init+0x184>)
100017dc:	f7fe fd4a 	bl	10000274 <command_init>
100017e0:	2101      	movs	r1, #1
100017e2:	201c      	movs	r0, #28
100017e4:	4a40      	ldr	r2, [pc, #256]	@ (100018e8 <text_init+0x188>)
100017e6:	f7fe fd45 	bl	10000274 <command_init>
100017ea:	2101      	movs	r1, #1
100017ec:	201d      	movs	r0, #29
100017ee:	4a3f      	ldr	r2, [pc, #252]	@ (100018ec <text_init+0x18c>)
100017f0:	f7fe fd40 	bl	10000274 <command_init>
100017f4:	2101      	movs	r1, #1
100017f6:	201e      	movs	r0, #30
100017f8:	4a3d      	ldr	r2, [pc, #244]	@ (100018f0 <text_init+0x190>)
100017fa:	f7fe fd3b 	bl	10000274 <command_init>
100017fe:	2100      	movs	r1, #0
10001800:	201f      	movs	r0, #31
10001802:	4a3c      	ldr	r2, [pc, #240]	@ (100018f4 <text_init+0x194>)
10001804:	f7fe fd36 	bl	10000274 <command_init>
10001808:	2101      	movs	r1, #1
1000180a:	2020      	movs	r0, #32
1000180c:	4a3a      	ldr	r2, [pc, #232]	@ (100018f8 <text_init+0x198>)
1000180e:	f7fe fd31 	bl	10000274 <command_init>
10001812:	2100      	movs	r1, #0
10001814:	2021      	movs	r0, #33	@ 0x21
10001816:	4a39      	ldr	r2, [pc, #228]	@ (100018fc <text_init+0x19c>)
10001818:	f7fe fd2c 	bl	10000274 <command_init>
1000181c:	f04f 0c20 	mov.w	ip, #32
10001820:	250d      	movs	r5, #13
10001822:	200e      	movs	r0, #14
10001824:	f44f 5280 	mov.w	r2, #4096	@ 0x1000
10001828:	2150      	movs	r1, #80	@ 0x50
1000182a:	4b35      	ldr	r3, [pc, #212]	@ (10001900 <text_init+0x1a0>)
1000182c:	4e35      	ldr	r6, [pc, #212]	@ (10001904 <text_init+0x1a4>)
1000182e:	701c      	strb	r4, [r3, #0]
10001830:	231e      	movs	r3, #30
10001832:	7037      	strb	r7, [r6, #0]
10001834:	f44f 7696 	mov.w	r6, #300	@ 0x12c
10001838:	2400      	movs	r4, #0
1000183a:	4f33      	ldr	r7, [pc, #204]	@ (10001908 <text_init+0x1a8>)
1000183c:	f8df 8110 	ldr.w	r8, [pc, #272]	@ 10001950 <text_init+0x1f0>
10001840:	f887 c000 	strb.w	ip, [r7]
10001844:	4f31      	ldr	r7, [pc, #196]	@ (1000190c <text_init+0x1ac>)
10001846:	f888 4000 	strb.w	r4, [r8]
1000184a:	703d      	strb	r5, [r7, #0]
1000184c:	4f30      	ldr	r7, [pc, #192]	@ (10001910 <text_init+0x1b0>)
1000184e:	703d      	strb	r5, [r7, #0]
10001850:	4d30      	ldr	r5, [pc, #192]	@ (10001914 <text_init+0x1b4>)
10001852:	4f31      	ldr	r7, [pc, #196]	@ (10001918 <text_init+0x1b8>)
10001854:	7028      	strb	r0, [r5, #0]
10001856:	4d31      	ldr	r5, [pc, #196]	@ (1000191c <text_init+0x1bc>)
10001858:	703c      	strb	r4, [r7, #0]
1000185a:	7028      	strb	r0, [r5, #0]
1000185c:	4830      	ldr	r0, [pc, #192]	@ (10001920 <text_init+0x1c0>)
1000185e:	4d31      	ldr	r5, [pc, #196]	@ (10001924 <text_init+0x1c4>)
10001860:	8002      	strh	r2, [r0, #0]
10001862:	4831      	ldr	r0, [pc, #196]	@ (10001928 <text_init+0x1c8>)
10001864:	7029      	strb	r1, [r5, #0]
10001866:	7001      	strb	r1, [r0, #0]
10001868:	4830      	ldr	r0, [pc, #192]	@ (1000192c <text_init+0x1cc>)
1000186a:	4931      	ldr	r1, [pc, #196]	@ (10001930 <text_init+0x1d0>)
1000186c:	7003      	strb	r3, [r0, #0]
1000186e:	4831      	ldr	r0, [pc, #196]	@ (10001934 <text_init+0x1d4>)
10001870:	8006      	strh	r6, [r0, #0]
10001872:	4e31      	ldr	r6, [pc, #196]	@ (10001938 <text_init+0x1d8>)
10001874:	4831      	ldr	r0, [pc, #196]	@ (1000193c <text_init+0x1dc>)
10001876:	7033      	strb	r3, [r6, #0]
10001878:	4b31      	ldr	r3, [pc, #196]	@ (10001940 <text_init+0x1e0>)
1000187a:	6019      	str	r1, [r3, #0]
1000187c:	4931      	ldr	r1, [pc, #196]	@ (10001944 <text_init+0x1e4>)
1000187e:	f002 feeb 	bl	10004658 <memcpy>
10001882:	2201      	movs	r2, #1
10001884:	4621      	mov	r1, r4
10001886:	4620      	mov	r0, r4
10001888:	f7ff f8b0 	bl	100009ec <text_clear>
1000188c:	782b      	ldrb	r3, [r5, #0]
1000188e:	b143      	cbz	r3, 100018a2 <text_init+0x142>
10001890:	7833      	ldrb	r3, [r6, #0]
10001892:	b133      	cbz	r3, 100018a2 <text_init+0x142>
10001894:	492c      	ldr	r1, [pc, #176]	@ (10001948 <text_init+0x1e8>)
10001896:	f898 0000 	ldrb.w	r0, [r8]
1000189a:	4b2c      	ldr	r3, [pc, #176]	@ (1000194c <text_init+0x1ec>)
1000189c:	783a      	ldrb	r2, [r7, #0]
1000189e:	7008      	strb	r0, [r1, #0]
100018a0:	701a      	strb	r2, [r3, #0]
100018a2:	2100      	movs	r1, #0
100018a4:	2201      	movs	r2, #1
100018a6:	4608      	mov	r0, r1
100018a8:	f7fe ff50 	bl	1000074c <text_test>
100018ac:	e8bd 41f0 	ldmia.w	sp!, {r4, r5, r6, r7, r8, lr}
100018b0:	201c      	movs	r0, #28
100018b2:	f7fe bced 	b.w	10000290 <command_select>
100018b6:	bf00      	nop
100018b8:	1000131d 	.word	0x1000131d
100018bc:	10000575 	.word	0x10000575
100018c0:	10000585 	.word	0x10000585
100018c4:	100005ad 	.word	0x100005ad
100018c8:	10000621 	.word	0x10000621
100018cc:	100006b9 	.word	0x100006b9
100018d0:	100005c1 	.word	0x100005c1
100018d4:	10000605 	.word	0x10000605
100018d8:	100009ed 	.word	0x100009ed
100018dc:	10000715 	.word	0x10000715
100018e0:	1000052d 	.word	0x1000052d
100018e4:	1000089d 	.word	0x1000089d
100018e8:	10001059 	.word	0x10001059
100018ec:	10000b21 	.word	0x10000b21
100018f0:	10000b81 	.word	0x10000b81
100018f4:	100006f9 	.word	0x100006f9
100018f8:	1000062d 	.word	0x1000062d
100018fc:	1000074d 	.word	0x1000074d
10001900:	20009509 	.word	0x20009509
10001904:	20009508 	.word	0x20009508
10001908:	20009503 	.word	0x20009503
1000190c:	20009504 	.word	0x20009504
10001910:	20009501 	.word	0x20009501
10001914:	20009505 	.word	0x20009505
10001918:	200094fd 	.word	0x200094fd
1000191c:	20009502 	.word	0x20009502
10001920:	200094f8 	.word	0x200094f8
10001924:	20000abb 	.word	0x20000abb
10001928:	200094fe 	.word	0x200094fe
1000192c:	200094ff 	.word	0x200094ff
10001930:	10007f18 	.word	0x10007f18
10001934:	200094f6 	.word	0x200094f6
10001938:	20000aba 	.word	0x20000aba
1000193c:	20005f38 	.word	0x20005f38
10001940:	200094f0 	.word	0x200094f0
10001944:	10004ab4 	.word	0x10004ab4
10001948:	20009506 	.word	0x20009506
1000194c:	20009507 	.word	0x20009507
10001950:	200094fc 	.word	0x200094fc

10001954 <gpio_set_function>:
10001954:	b410      	push	{r4}
10001956:	f44f 7480 	mov.w	r4, #256	@ 0x100
1000195a:	4b0c      	ldr	r3, [pc, #48]	@ (1000198c <gpio_set_function+0x38>)
1000195c:	f853 2020 	ldr.w	r2, [r3, r0, lsl #2]
10001960:	eb03 0380 	add.w	r3, r3, r0, lsl #2
10001964:	00c0      	lsls	r0, r0, #3
10001966:	f082 0240 	eor.w	r2, r2, #64	@ 0x40
1000196a:	f100 4080 	add.w	r0, r0, #1073741824	@ 0x40000000
1000196e:	f503 5c80 	add.w	ip, r3, #4096	@ 0x1000
10001972:	f002 02c0 	and.w	r2, r2, #192	@ 0xc0
10001976:	f500 3020 	add.w	r0, r0, #163840	@ 0x28000
1000197a:	f503 5340 	add.w	r3, r3, #12288	@ 0x3000
1000197e:	f8cc 2000 	str.w	r2, [ip]
10001982:	6041      	str	r1, [r0, #4]
10001984:	601c      	str	r4, [r3, #0]
10001986:	f85d 4b04 	ldr.w	r4, [sp], #4
1000198a:	4770      	bx	lr
1000198c:	40038004 	.word	0x40038004

10001990 <gpio_set_pulls>:
10001990:	b410      	push	{r4}
10001992:	4c08      	ldr	r4, [pc, #32]	@ (100019b4 <gpio_set_pulls+0x24>)
10001994:	00c9      	lsls	r1, r1, #3
10001996:	ea41 0182 	orr.w	r1, r1, r2, lsl #2
1000199a:	f854 2020 	ldr.w	r2, [r4, r0, lsl #2]
1000199e:	eb04 0380 	add.w	r3, r4, r0, lsl #2
100019a2:	4051      	eors	r1, r2
100019a4:	f503 5380 	add.w	r3, r3, #4096	@ 0x1000
100019a8:	f001 010c 	and.w	r1, r1, #12
100019ac:	f85d 4b04 	ldr.w	r4, [sp], #4
100019b0:	6019      	str	r1, [r3, #0]
100019b2:	4770      	bx	lr
100019b4:	40038004 	.word	0x40038004

100019b8 <gpio_set_outover>:
100019b8:	00c0      	lsls	r0, r0, #3
100019ba:	f100 4080 	add.w	r0, r0, #1073741824	@ 0x40000000
100019be:	3004      	adds	r0, #4
100019c0:	f500 3320 	add.w	r3, r0, #163840	@ 0x28000
100019c4:	681b      	ldr	r3, [r3, #0]
100019c6:	f500 3024 	add.w	r0, r0, #167936	@ 0x29000
100019ca:	ea83 3301 	eor.w	r3, r3, r1, lsl #12
100019ce:	f403 5340 	and.w	r3, r3, #12288	@ 0x3000
100019d2:	6003      	str	r3, [r0, #0]
100019d4:	4770      	bx	lr
100019d6:	bf00      	nop

100019d8 <gpio_init>:
100019d8:	b430      	push	{r4, r5}
100019da:	f04f 0300 	mov.w	r3, #0
100019de:	ec43 0044 	gpioc_bit_oe_put r0, r3
100019e2:	ec43 0040 	gpioc_bit_out_put r0, r3
100019e6:	2505      	movs	r5, #5
100019e8:	f44f 7480 	mov.w	r4, #256	@ 0x100
100019ec:	4b0b      	ldr	r3, [pc, #44]	@ (10001a1c <gpio_init+0x44>)
100019ee:	00c2      	lsls	r2, r0, #3
100019f0:	f853 1020 	ldr.w	r1, [r3, r0, lsl #2]
100019f4:	eb03 0080 	add.w	r0, r3, r0, lsl #2
100019f8:	f081 0140 	eor.w	r1, r1, #64	@ 0x40
100019fc:	f102 4380 	add.w	r3, r2, #1073741824	@ 0x40000000
10001a00:	f503 3320 	add.w	r3, r3, #163840	@ 0x28000
10001a04:	f001 02c0 	and.w	r2, r1, #192	@ 0xc0
10001a08:	f500 5180 	add.w	r1, r0, #4096	@ 0x1000
10001a0c:	f500 5040 	add.w	r0, r0, #12288	@ 0x3000
10001a10:	600a      	str	r2, [r1, #0]
10001a12:	605d      	str	r5, [r3, #4]
10001a14:	6004      	str	r4, [r0, #0]
10001a16:	bc30      	pop	{r4, r5}
10001a18:	4770      	bx	lr
10001a1a:	bf00      	nop
10001a1c:	40038004 	.word	0x40038004

10001a20 <panic>:
10001a20:	b40f      	push	{r0, r1, r2, r3}
10001a22:	b500      	push	{lr}
10001a24:	b083      	sub	sp, #12
10001a26:	9c04      	ldr	r4, [sp, #16]
10001a28:	4807      	ldr	r0, [pc, #28]	@ (10001a48 <panic+0x28>)
10001a2a:	f001 fb31 	bl	10003090 <__wrap_puts>
10001a2e:	b13c      	cbz	r4, 10001a40 <panic+0x20>
10001a30:	a905      	add	r1, sp, #20
10001a32:	4620      	mov	r0, r4
10001a34:	9101      	str	r1, [sp, #4]
10001a36:	f001 f9d1 	bl	10002ddc <weak_raw_vprintf>
10001a3a:	4804      	ldr	r0, [pc, #16]	@ (10001a4c <panic+0x2c>)
10001a3c:	f001 fb28 	bl	10003090 <__wrap_puts>
10001a40:	2001      	movs	r0, #1
10001a42:	f001 f9e3 	bl	10002e0c <_exit>
10001a46:	bf00      	nop
10001a48:	10004938 	.word	0x10004938
10001a4c:	10004948 	.word	0x10004948

10001a50 <hw_claim_lock>:
10001a50:	f3ef 8010 	mrs	r0, PRIMASK
10001a54:	b672      	cpsid	i
10001a56:	4b06      	ldr	r3, [pc, #24]	@ (10001a70 <hw_claim_lock+0x20>)
10001a58:	e8d3 1fcf 	ldaexb	r1, [r3]
10001a5c:	2201      	movs	r2, #1
10001a5e:	2900      	cmp	r1, #0
10001a60:	d1fa      	bne.n	10001a58 <hw_claim_lock+0x8>
10001a62:	e8c3 2f41 	strexb	r1, r2, [r3]
10001a66:	2900      	cmp	r1, #0
10001a68:	d1f6      	bne.n	10001a58 <hw_claim_lock+0x8>
10001a6a:	f3bf 8f5f 	dmb	sy
10001a6e:	4770      	bx	lr
10001a70:	2000178b 	.word	0x2000178b

10001a74 <hw_claim_unlock>:
10001a74:	2300      	movs	r3, #0
10001a76:	4a03      	ldr	r2, [pc, #12]	@ (10001a84 <hw_claim_unlock+0x10>)
10001a78:	e8c2 3f8f 	stlb	r3, [r2]
10001a7c:	f380 8810 	msr	PRIMASK, r0
10001a80:	4770      	bx	lr
10001a82:	bf00      	nop
10001a84:	2000178b 	.word	0x2000178b

10001a88 <hw_claim_or_assert>:
10001a88:	b570      	push	{r4, r5, r6, lr}
10001a8a:	4686      	mov	lr, r0
10001a8c:	f3ef 8510 	mrs	r5, PRIMASK
10001a90:	b672      	cpsid	i
10001a92:	4c12      	ldr	r4, [pc, #72]	@ (10001adc <hw_claim_or_assert+0x54>)
10001a94:	e8d4 6fcf 	ldaexb	r6, [r4]
10001a98:	2001      	movs	r0, #1
10001a9a:	2e00      	cmp	r6, #0
10001a9c:	d1fa      	bne.n	10001a94 <hw_claim_or_assert+0xc>
10001a9e:	e8c4 0f46 	strexb	r6, r0, [r4]
10001aa2:	2e00      	cmp	r6, #0
10001aa4:	d1f6      	bne.n	10001a94 <hw_claim_or_assert+0xc>
10001aa6:	f3bf 8f5f 	dmb	sy
10001aaa:	f04f 0c01 	mov.w	ip, #1
10001aae:	08c8      	lsrs	r0, r1, #3
10001ab0:	f001 0307 	and.w	r3, r1, #7
10001ab4:	fa0c f303 	lsl.w	r3, ip, r3
10001ab8:	f81e c000 	ldrb.w	ip, [lr, r0]
10001abc:	ea1c 0603 	ands.w	r6, ip, r3
10001ac0:	d108      	bne.n	10001ad4 <hw_claim_or_assert+0x4c>
10001ac2:	ea4c 0c03 	orr.w	ip, ip, r3
10001ac6:	f80e c000 	strb.w	ip, [lr, r0]
10001aca:	e8c4 6f8f 	stlb	r6, [r4]
10001ace:	f385 8810 	msr	PRIMASK, r5
10001ad2:	bd70      	pop	{r4, r5, r6, pc}
10001ad4:	4610      	mov	r0, r2
10001ad6:	f7ff ffa3 	bl	10001a20 <panic>
10001ada:	bf00      	nop
10001adc:	2000178b 	.word	0x2000178b

10001ae0 <hw_claim_unused_from_range>:
10001ae0:	b5f8      	push	{r3, r4, r5, r6, r7, lr}
10001ae2:	f3ef 8510 	mrs	r5, PRIMASK
10001ae6:	b672      	cpsid	i
10001ae8:	4c23      	ldr	r4, [pc, #140]	@ (10001b78 <hw_claim_unused_from_range+0x98>)
10001aea:	e8d4 7fcf 	ldaexb	r7, [r4]
10001aee:	2601      	movs	r6, #1
10001af0:	2f00      	cmp	r7, #0
10001af2:	d1fa      	bne.n	10001aea <hw_claim_unused_from_range+0xa>
10001af4:	e8c4 6f47 	strexb	r7, r6, [r4]
10001af8:	2f00      	cmp	r7, #0
10001afa:	d1f6      	bne.n	10001aea <hw_claim_unused_from_range+0xa>
10001afc:	f3bf 8f5f 	dmb	sy
10001b00:	429a      	cmp	r2, r3
10001b02:	d827      	bhi.n	10001b54 <hw_claim_unused_from_range+0x74>
10001b04:	2601      	movs	r6, #1
10001b06:	08d7      	lsrs	r7, r2, #3
10001b08:	f810 e007 	ldrb.w	lr, [r0, r7]
10001b0c:	f002 0c07 	and.w	ip, r2, #7
10001b10:	fa06 fc0c 	lsl.w	ip, r6, ip
10001b14:	ea1e 0f0c 	tst.w	lr, ip
10001b18:	eb00 07d2 	add.w	r7, r0, r2, lsr #3
10001b1c:	d10d      	bne.n	10001b3a <hw_claim_unused_from_range+0x5a>
10001b1e:	e025      	b.n	10001b6c <hw_claim_unused_from_range+0x8c>
10001b20:	ea4f 0ed2 	mov.w	lr, r2, lsr #3
10001b24:	f810 e00e 	ldrb.w	lr, [r0, lr]
10001b28:	f002 0c07 	and.w	ip, r2, #7
10001b2c:	fa06 fc0c 	lsl.w	ip, r6, ip
10001b30:	ea1e 0f0c 	tst.w	lr, ip
10001b34:	eb00 07d2 	add.w	r7, r0, r2, lsr #3
10001b38:	d018      	beq.n	10001b6c <hw_claim_unused_from_range+0x8c>
10001b3a:	3201      	adds	r2, #1
10001b3c:	4293      	cmp	r3, r2
10001b3e:	d2ef      	bcs.n	10001b20 <hw_claim_unused_from_range+0x40>
10001b40:	f04f 30ff 	mov.w	r0, #4294967295	@ 0xffffffff
10001b44:	2300      	movs	r3, #0
10001b46:	e8c4 3f8f 	stlb	r3, [r4]
10001b4a:	f385 8810 	msr	PRIMASK, r5
10001b4e:	4298      	cmp	r0, r3
10001b50:	db07      	blt.n	10001b62 <hw_claim_unused_from_range+0x82>
10001b52:	bdf8      	pop	{r3, r4, r5, r6, r7, pc}
10001b54:	2300      	movs	r3, #0
10001b56:	e8c4 3f8f 	stlb	r3, [r4]
10001b5a:	f385 8810 	msr	PRIMASK, r5
10001b5e:	f04f 30ff 	mov.w	r0, #4294967295	@ 0xffffffff
10001b62:	2900      	cmp	r1, #0
10001b64:	d0f5      	beq.n	10001b52 <hw_claim_unused_from_range+0x72>
10001b66:	9806      	ldr	r0, [sp, #24]
10001b68:	f7ff ff5a 	bl	10001a20 <panic>
10001b6c:	ea4e 0e0c 	orr.w	lr, lr, ip
10001b70:	4610      	mov	r0, r2
10001b72:	f887 e000 	strb.w	lr, [r7]
10001b76:	e7e5      	b.n	10001b44 <hw_claim_unused_from_range+0x64>
10001b78:	2000178b 	.word	0x2000178b

10001b7c <next_striped_spin_lock_num>:
10001b7c:	4a04      	ldr	r2, [pc, #16]	@ (10001b90 <next_striped_spin_lock_num+0x14>)
10001b7e:	7810      	ldrb	r0, [r2, #0]
10001b80:	1c43      	adds	r3, r0, #1
10001b82:	b2db      	uxtb	r3, r3
10001b84:	2b18      	cmp	r3, #24
10001b86:	bf28      	it	cs
10001b88:	2310      	movcs	r3, #16
10001b8a:	7013      	strb	r3, [r2, #0]
10001b8c:	4770      	bx	lr
10001b8e:	bf00      	nop
10001b90:	20000ac4 	.word	0x20000ac4

10001b94 <spinlock_set_extexclall>:
10001b94:	f04f 22e0 	mov.w	r2, #3758153728	@ 0xe000e000
10001b98:	6893      	ldr	r3, [r2, #8]
10001b9a:	f043 5300 	orr.w	r3, r3, #536870912	@ 0x20000000
10001b9e:	6093      	str	r3, [r2, #8]
10001ba0:	4770      	bx	lr
10001ba2:	bf00      	nop

10001ba4 <spin_locks_reset>:
10001ba4:	2100      	movs	r1, #0
10001ba6:	4b04      	ldr	r3, [pc, #16]	@ (10001bb8 <spin_locks_reset+0x14>)
10001ba8:	f103 0220 	add.w	r2, r3, #32
10001bac:	e8c3 1f8f 	stlb	r1, [r3]
10001bb0:	3301      	adds	r3, #1
10001bb2:	4293      	cmp	r3, r2
10001bb4:	d1fa      	bne.n	10001bac <spin_locks_reset+0x8>
10001bb6:	4770      	bx	lr
10001bb8:	20001780 	.word	0x20001780

10001bbc <runtime_init_per_core_irq_priorities>:
10001bbc:	f04f 23e0 	mov.w	r3, #3758153728	@ 0xe000e000
10001bc0:	f04f 3280 	mov.w	r2, #2155905152	@ 0x80808080
10001bc4:	f8c3 2400 	str.w	r2, [r3, #1024]	@ 0x400
10001bc8:	f8c3 2404 	str.w	r2, [r3, #1028]	@ 0x404
10001bcc:	f8c3 2408 	str.w	r2, [r3, #1032]	@ 0x408
10001bd0:	f8c3 240c 	str.w	r2, [r3, #1036]	@ 0x40c
10001bd4:	f8c3 2410 	str.w	r2, [r3, #1040]	@ 0x410
10001bd8:	f8c3 2414 	str.w	r2, [r3, #1044]	@ 0x414
10001bdc:	f8c3 2418 	str.w	r2, [r3, #1048]	@ 0x418
10001be0:	f8c3 241c 	str.w	r2, [r3, #1052]	@ 0x41c
10001be4:	f8c3 2420 	str.w	r2, [r3, #1056]	@ 0x420
10001be8:	f8c3 2424 	str.w	r2, [r3, #1060]	@ 0x424
10001bec:	f8c3 2428 	str.w	r2, [r3, #1064]	@ 0x428
10001bf0:	f8c3 242c 	str.w	r2, [r3, #1068]	@ 0x42c
10001bf4:	f8c3 2430 	str.w	r2, [r3, #1072]	@ 0x430
10001bf8:	b662      	cpsie	i
10001bfa:	4770      	bx	lr

10001bfc <irq_set_enabled>:
10001bfc:	2301      	movs	r3, #1
10001bfe:	f000 021f 	and.w	r2, r0, #31
10001c02:	4093      	lsls	r3, r2
10001c04:	0940      	lsrs	r0, r0, #5
10001c06:	b141      	cbz	r1, 10001c1a <irq_set_enabled+0x1e>
10001c08:	0080      	lsls	r0, r0, #2
10001c0a:	f100 4060 	add.w	r0, r0, #3758096384	@ 0xe0000000
10001c0e:	f500 4061 	add.w	r0, r0, #57600	@ 0xe100
10001c12:	f8c0 3180 	str.w	r3, [r0, #384]	@ 0x180
10001c16:	6003      	str	r3, [r0, #0]
10001c18:	4770      	bx	lr
10001c1a:	4a02      	ldr	r2, [pc, #8]	@ (10001c24 <irq_set_enabled+0x28>)
10001c1c:	3020      	adds	r0, #32
10001c1e:	f842 3020 	str.w	r3, [r2, r0, lsl #2]
10001c22:	4770      	bx	lr
10001c24:	e000e100 	.word	0xe000e100

10001c28 <irq_is_enabled>:
10001c28:	2301      	movs	r3, #1
10001c2a:	4a06      	ldr	r2, [pc, #24]	@ (10001c44 <irq_is_enabled+0x1c>)
10001c2c:	0941      	lsrs	r1, r0, #5
10001c2e:	f852 2021 	ldr.w	r2, [r2, r1, lsl #2]
10001c32:	f000 001f 	and.w	r0, r0, #31
10001c36:	4083      	lsls	r3, r0
10001c38:	4213      	tst	r3, r2
10001c3a:	bf14      	ite	ne
10001c3c:	2001      	movne	r0, #1
10001c3e:	2000      	moveq	r0, #0
10001c40:	4770      	bx	lr
10001c42:	bf00      	nop
10001c44:	e000e100 	.word	0xe000e100

10001c48 <irq_set_exclusive_handler>:
10001c48:	b5f8      	push	{r3, r4, r5, r6, r7, lr}
10001c4a:	460d      	mov	r5, r1
10001c4c:	f3ef 8710 	mrs	r7, PRIMASK
10001c50:	b672      	cpsid	i
10001c52:	4e12      	ldr	r6, [pc, #72]	@ (10001c9c <irq_set_exclusive_handler+0x54>)
10001c54:	e8d6 2fcf 	ldaexb	r2, [r6]
10001c58:	2301      	movs	r3, #1
10001c5a:	2a00      	cmp	r2, #0
10001c5c:	d1fa      	bne.n	10001c54 <irq_set_exclusive_handler+0xc>
10001c5e:	e8c6 3f42 	strexb	r2, r3, [r6]
10001c62:	2a00      	cmp	r2, #0
10001c64:	d1f6      	bne.n	10001c54 <irq_set_exclusive_handler+0xc>
10001c66:	f3bf 8f5f 	dmb	sy
10001c6a:	4b0d      	ldr	r3, [pc, #52]	@ (10001ca0 <irq_set_exclusive_handler+0x58>)
10001c6c:	f100 0410 	add.w	r4, r0, #16
10001c70:	689b      	ldr	r3, [r3, #8]
10001c72:	4a0c      	ldr	r2, [pc, #48]	@ (10001ca4 <irq_set_exclusive_handler+0x5c>)
10001c74:	f853 3024 	ldr.w	r3, [r3, r4, lsl #2]
10001c78:	4293      	cmp	r3, r2
10001c7a:	d003      	beq.n	10001c84 <irq_set_exclusive_handler+0x3c>
10001c7c:	4299      	cmp	r1, r3
10001c7e:	d001      	beq.n	10001c84 <irq_set_exclusive_handler+0x3c>
10001c80:	f000 ff48 	bl	10002b14 <hard_assertion_failure>
10001c84:	4b06      	ldr	r3, [pc, #24]	@ (10001ca0 <irq_set_exclusive_handler+0x58>)
10001c86:	689b      	ldr	r3, [r3, #8]
10001c88:	f843 5024 	str.w	r5, [r3, r4, lsl #2]
10001c8c:	f3bf 8f5f 	dmb	sy
10001c90:	2300      	movs	r3, #0
10001c92:	e8c6 3f8f 	stlb	r3, [r6]
10001c96:	f387 8810 	msr	PRIMASK, r7
10001c9a:	bdf8      	pop	{r3, r4, r5, r6, r7, pc}
10001c9c:	20001789 	.word	0x20001789
10001ca0:	e000ed00 	.word	0xe000ed00
10001ca4:	10000111 	.word	0x10000111

10001ca8 <lock_init>:
10001ca8:	4b01      	ldr	r3, [pc, #4]	@ (10001cb0 <lock_init+0x8>)
10001caa:	440b      	add	r3, r1
10001cac:	6003      	str	r3, [r0, #0]
10001cae:	4770      	bx	lr
10001cb0:	20001780 	.word	0x20001780

10001cb4 <runtime_init_mutex>:
10001cb4:	b570      	push	{r4, r5, r6, lr}
10001cb6:	4c10      	ldr	r4, [pc, #64]	@ (10001cf8 <runtime_init_mutex+0x44>)
10001cb8:	4d10      	ldr	r5, [pc, #64]	@ (10001cfc <runtime_init_mutex+0x48>)
10001cba:	42ac      	cmp	r4, r5
10001cbc:	d20e      	bcs.n	10001cdc <runtime_init_mutex+0x28>
10001cbe:	26ff      	movs	r6, #255	@ 0xff
10001cc0:	6823      	ldr	r3, [r4, #0]
10001cc2:	b163      	cbz	r3, 10001cde <runtime_init_mutex+0x2a>
10001cc4:	f7ff ff5a 	bl	10001b7c <next_striped_spin_lock_num>
10001cc8:	4601      	mov	r1, r0
10001cca:	4620      	mov	r0, r4
10001ccc:	f7ff ffec 	bl	10001ca8 <lock_init>
10001cd0:	80a6      	strh	r6, [r4, #4]
10001cd2:	f3bf 8f5f 	dmb	sy
10001cd6:	3408      	adds	r4, #8
10001cd8:	42ac      	cmp	r4, r5
10001cda:	d3f1      	bcc.n	10001cc0 <runtime_init_mutex+0xc>
10001cdc:	bd70      	pop	{r4, r5, r6, pc}
10001cde:	f7ff ff4d 	bl	10001b7c <next_striped_spin_lock_num>
10001ce2:	4601      	mov	r1, r0
10001ce4:	4620      	mov	r0, r4
10001ce6:	f7ff ffdf 	bl	10001ca8 <lock_init>
10001cea:	7126      	strb	r6, [r4, #4]
10001cec:	f3bf 8f5f 	dmb	sy
10001cf0:	3408      	adds	r4, #8
10001cf2:	42ac      	cmp	r4, r5
10001cf4:	d3e4      	bcc.n	10001cc0 <runtime_init_mutex+0xc>
10001cf6:	bd70      	pop	{r4, r5, r6, pc}
10001cf8:	20001018 	.word	0x20001018
10001cfc:	20001028 	.word	0x20001028

10001d00 <sleep_until_callback>:
10001d00:	4b0d      	ldr	r3, [pc, #52]	@ (10001d38 <sleep_until_callback+0x38>)
10001d02:	681a      	ldr	r2, [r3, #0]
10001d04:	f3ef 8110 	mrs	r1, PRIMASK
10001d08:	b672      	cpsid	i
10001d0a:	e8d2 cfcf 	ldaexb	ip, [r2]
10001d0e:	2001      	movs	r0, #1
10001d10:	f1bc 0f00 	cmp.w	ip, #0
10001d14:	d1f9      	bne.n	10001d0a <sleep_until_callback+0xa>
10001d16:	e8c2 0f4c 	strexb	ip, r0, [r2]
10001d1a:	f1bc 0f00 	cmp.w	ip, #0
10001d1e:	d1f4      	bne.n	10001d0a <sleep_until_callback+0xa>
10001d20:	f3bf 8f5f 	dmb	sy
10001d24:	2200      	movs	r2, #0
10001d26:	681b      	ldr	r3, [r3, #0]
10001d28:	e8c3 2f8f 	stlb	r2, [r3]
10001d2c:	f381 8810 	msr	PRIMASK, r1
10001d30:	bf40      	sev
10001d32:	2000      	movs	r0, #0
10001d34:	2100      	movs	r1, #0
10001d36:	4770      	bx	lr
10001d38:	20006f6c 	.word	0x20006f6c
10001d3c:	00000000 	.word	0x00000000

10001d40 <alarm_pool_irq_handler>:
10001d40:	e92d 4ff0 	stmdb	sp!, {r4, r5, r6, r7, r8, r9, sl, fp, lr}
10001d44:	ed2d 8b02 	vpush	{d8}
10001d48:	b085      	sub	sp, #20
10001d4a:	f3ef 8305 	mrs	r3, IPSR
10001d4e:	b2db      	uxtb	r3, r3
10001d50:	3b10      	subs	r3, #16
10001d52:	089a      	lsrs	r2, r3, #2
10001d54:	bf18      	it	ne
10001d56:	2201      	movne	r2, #1
10001d58:	f04f 0101 	mov.w	r1, #1
10001d5c:	f003 0003 	and.w	r0, r3, #3
10001d60:	bf18      	it	ne
10001d62:	4daf      	ldrne	r5, [pc, #700]	@ (10002020 <alarm_pool_irq_handler+0x2e0>)
10001d64:	4baf      	ldr	r3, [pc, #700]	@ (10002024 <alarm_pool_irq_handler+0x2e4>)
10001d66:	bf08      	it	eq
10001d68:	4daf      	ldreq	r5, [pc, #700]	@ (10002028 <alarm_pool_irq_handler+0x2e8>)
10001d6a:	eb00 0282 	add.w	r2, r0, r2, lsl #2
10001d6e:	f853 6022 	ldr.w	r6, [r3, r2, lsl #2]
10001d72:	fa01 fb00 	lsl.w	fp, r1, r0
10001d76:	f505 5341 	add.w	r3, r5, #12352	@ 0x3040
10001d7a:	ed9f 8ba7 	vldr	d8, [pc, #668]	@ 10002018 <alarm_pool_irq_handler+0x2d8>
10001d7e:	9001      	str	r0, [sp, #4]
10001d80:	f8c3 b004 	str.w	fp, [r3, #4]
10001d84:	e02e      	b.n	10001de4 <alarm_pool_irq_handler+0xa4>
10001d86:	88b3      	ldrh	r3, [r6, #4]
10001d88:	0418      	lsls	r0, r3, #16
10001d8a:	f140 8092 	bpl.w	10001eb2 <alarm_pool_irq_handler+0x172>
10001d8e:	79b3      	ldrb	r3, [r6, #6]
10001d90:	2b00      	cmp	r3, #0
10001d92:	f040 80dc 	bne.w	10001f4e <alarm_pool_irq_handler+0x20e>
10001d96:	f9b6 1008 	ldrsh.w	r1, [r6, #8]
10001d9a:	2900      	cmp	r1, #0
10001d9c:	f2c0 811d 	blt.w	10001fda <alarm_pool_irq_handler+0x29a>
10001da0:	6973      	ldr	r3, [r6, #20]
10001da2:	eb01 0141 	add.w	r1, r1, r1, lsl #1
10001da6:	eb03 03c1 	add.w	r3, r3, r1, lsl #3
10001daa:	e9d3 4702 	ldrd	r4, r7, [r3, #8]
10001dae:	f1b7 3fff 	cmp.w	r7, #4294967295	@ 0xffffffff
10001db2:	bf08      	it	eq
10001db4:	f1b4 3fff 	cmpeq.w	r4, #4294967295	@ 0xffffffff
10001db8:	d00d      	beq.n	10001dd6 <alarm_pool_irq_handler+0x96>
10001dba:	9b01      	ldr	r3, [sp, #4]
10001dbc:	eb05 0183 	add.w	r1, r5, r3, lsl #2
10001dc0:	6aab      	ldr	r3, [r5, #40]	@ 0x28
10001dc2:	690a      	ldr	r2, [r1, #16]
10001dc4:	1ad2      	subs	r2, r2, r3
10001dc6:	1ae3      	subs	r3, r4, r3
10001dc8:	4293      	cmp	r3, r2
10001dca:	d303      	bcc.n	10001dd4 <alarm_pool_irq_handler+0x94>
10001dcc:	6a2b      	ldr	r3, [r5, #32]
10001dce:	ea13 0f0b 	tst.w	r3, fp
10001dd2:	d100      	bne.n	10001dd6 <alarm_pool_irq_handler+0x96>
10001dd4:	610c      	str	r4, [r1, #16]
10001dd6:	4628      	mov	r0, r5
10001dd8:	f000 fb32 	bl	10002440 <timer_time_us_64>
10001ddc:	42a0      	cmp	r0, r4
10001dde:	41b9      	sbcs	r1, r7
10001de0:	f2c0 80fb 	blt.w	10001fda <alarm_pool_irq_handler+0x29a>
10001de4:	f9b6 3008 	ldrsh.w	r3, [r6, #8]
10001de8:	f8c5 b03c 	str.w	fp, [r5, #60]	@ 0x3c
10001dec:	2b00      	cmp	r3, #0
10001dee:	9300      	str	r3, [sp, #0]
10001df0:	dbc9      	blt.n	10001d86 <alarm_pool_irq_handler+0x46>
10001df2:	f8d6 9014 	ldr.w	r9, [r6, #20]
10001df6:	eb03 0a43 	add.w	sl, r3, r3, lsl #1
10001dfa:	4628      	mov	r0, r5
10001dfc:	eb09 07ca 	add.w	r7, r9, sl, lsl #3
10001e00:	e9d7 4802 	ldrd	r4, r8, [r7, #8]
10001e04:	f000 fb1c 	bl	10002440 <timer_time_us_64>
10001e08:	42a0      	cmp	r0, r4
10001e0a:	eb71 0108 	sbcs.w	r1, r1, r8
10001e0e:	dbba      	blt.n	10001d86 <alarm_pool_irq_handler+0x46>
10001e10:	f1b8 0f00 	cmp.w	r8, #0
10001e14:	f2c0 80c3 	blt.w	10001f9e <alarm_pool_irq_handler+0x25e>
10001e18:	e9d7 3104 	ldrd	r3, r1, [r7, #16]
10001e1c:	4a83      	ldr	r2, [pc, #524]	@ (1000202c <alarm_pool_irq_handler+0x2ec>)
10001e1e:	4293      	cmp	r3, r2
10001e20:	f000 80ed 	beq.w	10001ffe <alarm_pool_irq_handler+0x2be>
10001e24:	887a      	ldrh	r2, [r7, #2]
10001e26:	f9b6 0008 	ldrsh.w	r0, [r6, #8]
10001e2a:	b292      	uxth	r2, r2
10001e2c:	ea42 4000 	orr.w	r0, r2, r0, lsl #16
10001e30:	4798      	blx	r3
10001e32:	4602      	mov	r2, r0
10001e34:	460b      	mov	r3, r1
10001e36:	ea52 0103 	orrs.w	r1, r2, r3
10001e3a:	f000 80b0 	beq.w	10001f9e <alarm_pool_irq_handler+0x25e>
10001e3e:	2b00      	cmp	r3, #0
10001e40:	f280 80d1 	bge.w	10001fe6 <alarm_pool_irq_handler+0x2a6>
10001e44:	ebb4 0e02 	subs.w	lr, r4, r2
10001e48:	eb68 0803 	sbc.w	r8, r8, r3
10001e4c:	f939 303a 	ldrsh.w	r3, [r9, sl, lsl #3]
10001e50:	e9c7 e802 	strd	lr, r8, [r7, #8]
10001e54:	2b00      	cmp	r3, #0
10001e56:	db96      	blt.n	10001d86 <alarm_pool_irq_handler+0x46>
10001e58:	6971      	ldr	r1, [r6, #20]
10001e5a:	eb03 0243 	add.w	r2, r3, r3, lsl #1
10001e5e:	eb01 02c2 	add.w	r2, r1, r2, lsl #3
10001e62:	e9d2 7002 	ldrd	r7, r0, [r2, #8]
10001e66:	45be      	cmp	lr, r7
10001e68:	eb78 0c00 	sbcs.w	ip, r8, r0
10001e6c:	ea4f 0243 	mov.w	r2, r3, lsl #1
10001e70:	db89      	blt.n	10001d86 <alarm_pool_irq_handler+0x46>
10001e72:	46b4      	mov	ip, r6
10001e74:	f82c 3f08 	strh.w	r3, [ip, #8]!
10001e78:	e00b      	b.n	10001e92 <alarm_pool_irq_handler+0x152>
10001e7a:	f931 3032 	ldrsh.w	r3, [r1, r2, lsl #3]
10001e7e:	46a4      	mov	ip, r4
10001e80:	2b00      	cmp	r3, #0
10001e82:	db0d      	blt.n	10001ea0 <alarm_pool_irq_handler+0x160>
10001e84:	eb03 0043 	add.w	r0, r3, r3, lsl #1
10001e88:	eb01 00c0 	add.w	r0, r1, r0, lsl #3
10001e8c:	005a      	lsls	r2, r3, #1
10001e8e:	e9d0 7002 	ldrd	r7, r0, [r0, #8]
10001e92:	45be      	cmp	lr, r7
10001e94:	441a      	add	r2, r3
10001e96:	eb78 0000 	sbcs.w	r0, r8, r0
10001e9a:	eb01 04c2 	add.w	r4, r1, r2, lsl #3
10001e9e:	daec      	bge.n	10001e7a <alarm_pool_irq_handler+0x13a>
10001ea0:	f829 303a 	strh.w	r3, [r9, sl, lsl #3]
10001ea4:	9b00      	ldr	r3, [sp, #0]
10001ea6:	f8ac 3000 	strh.w	r3, [ip]
10001eaa:	88b3      	ldrh	r3, [r6, #4]
10001eac:	0418      	lsls	r0, r3, #16
10001eae:	f53f af6e 	bmi.w	10001d8e <alarm_pool_irq_handler+0x4e>
10001eb2:	6933      	ldr	r3, [r6, #16]
10001eb4:	f3ef 8210 	mrs	r2, PRIMASK
10001eb8:	b672      	cpsid	i
10001eba:	e8d3 0fcf 	ldaexb	r0, [r3]
10001ebe:	2101      	movs	r1, #1
10001ec0:	2800      	cmp	r0, #0
10001ec2:	d1fa      	bne.n	10001eba <alarm_pool_irq_handler+0x17a>
10001ec4:	e8c3 1f40 	strexb	r0, r1, [r3]
10001ec8:	2800      	cmp	r0, #0
10001eca:	d1f6      	bne.n	10001eba <alarm_pool_irq_handler+0x17a>
10001ecc:	f3bf 8f5f 	dmb	sy
10001ed0:	f64f 74ff 	movw	r4, #65535	@ 0xffff
10001ed4:	88b0      	ldrh	r0, [r6, #4]
10001ed6:	2300      	movs	r3, #0
10001ed8:	6931      	ldr	r1, [r6, #16]
10001eda:	b200      	sxth	r0, r0
10001edc:	80b4      	strh	r4, [r6, #4]
10001ede:	e8c1 3f8f 	stlb	r3, [r1]
10001ee2:	f382 8810 	msr	PRIMASK, r2
10001ee6:	4298      	cmp	r0, r3
10001ee8:	f6ff af51 	blt.w	10001d8e <alarm_pool_irq_handler+0x4e>
10001eec:	4607      	mov	r7, r0
10001eee:	46a9      	mov	r9, r5
10001ef0:	6974      	ldr	r4, [r6, #20]
10001ef2:	f106 0808 	add.w	r8, r6, #8
10001ef6:	eb07 0e47 	add.w	lr, r7, r7, lsl #1
10001efa:	eb04 03ce 	add.w	r3, r4, lr, lsl #3
10001efe:	e9d3 5002 	ldrd	r5, r0, [r3, #8]
10001f02:	f9b6 3008 	ldrsh.w	r3, [r6, #8]
10001f06:	46c4      	mov	ip, r8
10001f08:	2b00      	cmp	r3, #0
10001f0a:	db13      	blt.n	10001f34 <alarm_pool_irq_handler+0x1f4>
10001f0c:	46b2      	mov	sl, r6
10001f0e:	9700      	str	r7, [sp, #0]
10001f10:	e004      	b.n	10001f1c <alarm_pool_irq_handler+0x1dc>
10001f12:	f934 3036 	ldrsh.w	r3, [r4, r6, lsl #3]
10001f16:	4694      	mov	ip, r2
10001f18:	2b00      	cmp	r3, #0
10001f1a:	db09      	blt.n	10001f30 <alarm_pool_irq_handler+0x1f0>
10001f1c:	eb03 0643 	add.w	r6, r3, r3, lsl #1
10001f20:	eb04 02c6 	add.w	r2, r4, r6, lsl #3
10001f24:	e9d2 7102 	ldrd	r7, r1, [r2, #8]
10001f28:	42bd      	cmp	r5, r7
10001f2a:	eb70 0101 	sbcs.w	r1, r0, r1
10001f2e:	daf0      	bge.n	10001f12 <alarm_pool_irq_handler+0x1d2>
10001f30:	4656      	mov	r6, sl
10001f32:	9f00      	ldr	r7, [sp, #0]
10001f34:	f8ac 7000 	strh.w	r7, [ip]
10001f38:	f934 703e 	ldrsh.w	r7, [r4, lr, lsl #3]
10001f3c:	f824 303e 	strh.w	r3, [r4, lr, lsl #3]
10001f40:	2f00      	cmp	r7, #0
10001f42:	dad8      	bge.n	10001ef6 <alarm_pool_irq_handler+0x1b6>
10001f44:	79b3      	ldrb	r3, [r6, #6]
10001f46:	464d      	mov	r5, r9
10001f48:	2b00      	cmp	r3, #0
10001f4a:	f43f af24 	beq.w	10001d96 <alarm_pool_irq_handler+0x56>
10001f4e:	2300      	movs	r3, #0
10001f50:	71b3      	strb	r3, [r6, #6]
10001f52:	f9b6 3008 	ldrsh.w	r3, [r6, #8]
10001f56:	f106 0808 	add.w	r8, r6, #8
10001f5a:	1c59      	adds	r1, r3, #1
10001f5c:	d03d      	beq.n	10001fda <alarm_pool_irq_handler+0x29a>
10001f5e:	4619      	mov	r1, r3
10001f60:	6977      	ldr	r7, [r6, #20]
10001f62:	e003      	b.n	10001f6c <alarm_pool_irq_handler+0x22c>
10001f64:	4680      	mov	r8, r0
10001f66:	1c5a      	adds	r2, r3, #1
10001f68:	f43f af17 	beq.w	10001d9a <alarm_pool_irq_handler+0x5a>
10001f6c:	eb03 0243 	add.w	r2, r3, r3, lsl #1
10001f70:	eb07 00c2 	add.w	r0, r7, r2, lsl #3
10001f74:	f8b0 c002 	ldrh.w	ip, [r0, #2]
10001f78:	461c      	mov	r4, r3
10001f7a:	f41c 4f00 	tst.w	ip, #32768	@ 0x8000
10001f7e:	469e      	mov	lr, r3
10001f80:	f937 3032 	ldrsh.w	r3, [r7, r2, lsl #3]
10001f84:	d0ee      	beq.n	10001f64 <alarm_pool_irq_handler+0x224>
10001f86:	428c      	cmp	r4, r1
10001f88:	ed80 8b02 	vstr	d8, [r0, #8]
10001f8c:	d005      	beq.n	10001f9a <alarm_pool_irq_handler+0x25a>
10001f8e:	f8a8 3000 	strh.w	r3, [r8]
10001f92:	8931      	ldrh	r1, [r6, #8]
10001f94:	f827 1032 	strh.w	r1, [r7, r2, lsl #3]
10001f98:	8134      	strh	r4, [r6, #8]
10001f9a:	4671      	mov	r1, lr
10001f9c:	e7e3      	b.n	10001f66 <alarm_pool_irq_handler+0x226>
10001f9e:	f839 303a 	ldrh.w	r3, [r9, sl, lsl #3]
10001fa2:	8133      	strh	r3, [r6, #8]
10001fa4:	6933      	ldr	r3, [r6, #16]
10001fa6:	f3ef 8210 	mrs	r2, PRIMASK
10001faa:	b672      	cpsid	i
10001fac:	e8d3 0fcf 	ldaexb	r0, [r3]
10001fb0:	2101      	movs	r1, #1
10001fb2:	2800      	cmp	r0, #0
10001fb4:	d1fa      	bne.n	10001fac <alarm_pool_irq_handler+0x26c>
10001fb6:	e8c3 1f40 	strexb	r0, r1, [r3]
10001fba:	2800      	cmp	r0, #0
10001fbc:	d1f6      	bne.n	10001fac <alarm_pool_irq_handler+0x26c>
10001fbe:	f3bf 8f5f 	dmb	sy
10001fc2:	8873      	ldrh	r3, [r6, #2]
10001fc4:	6931      	ldr	r1, [r6, #16]
10001fc6:	f829 303a 	strh.w	r3, [r9, sl, lsl #3]
10001fca:	9b00      	ldr	r3, [sp, #0]
10001fcc:	8073      	strh	r3, [r6, #2]
10001fce:	2300      	movs	r3, #0
10001fd0:	e8c1 3f8f 	stlb	r3, [r1]
10001fd4:	f382 8810 	msr	PRIMASK, r2
10001fd8:	e6d5      	b.n	10001d86 <alarm_pool_irq_handler+0x46>
10001fda:	bf40      	sev
10001fdc:	b005      	add	sp, #20
10001fde:	ecbd 8b02 	vpop	{d8}
10001fe2:	e8bd 8ff0 	ldmia.w	sp!, {r4, r5, r6, r7, r8, r9, sl, fp, pc}
10001fe6:	4628      	mov	r0, r5
10001fe8:	e9cd 2302 	strd	r2, r3, [sp, #8]
10001fec:	f000 fa28 	bl	10002440 <timer_time_us_64>
10001ff0:	9a02      	ldr	r2, [sp, #8]
10001ff2:	9b03      	ldr	r3, [sp, #12]
10001ff4:	eb10 0e02 	adds.w	lr, r0, r2
10001ff8:	eb43 0801 	adc.w	r8, r3, r1
10001ffc:	e726      	b.n	10001e4c <alarm_pool_irq_handler+0x10c>
10001ffe:	4608      	mov	r0, r1
10002000:	690b      	ldr	r3, [r1, #16]
10002002:	9102      	str	r1, [sp, #8]
10002004:	4798      	blx	r3
10002006:	2800      	cmp	r0, #0
10002008:	d0c9      	beq.n	10001f9e <alarm_pool_irq_handler+0x25e>
1000200a:	9902      	ldr	r1, [sp, #8]
1000200c:	e9d1 2300 	ldrd	r2, r3, [r1]
10002010:	e711      	b.n	10001e36 <alarm_pool_irq_handler+0xf6>
10002012:	bf00      	nop
10002014:	f3af 8000 	nop.w
10002018:	ffffffff 	.word	0xffffffff
1000201c:	ffffffff 	.word	0xffffffff
10002020:	400b8000 	.word	0x400b8000
10002024:	20006f48 	.word	0x20006f48
10002028:	400b0000 	.word	0x400b0000
1000202c:	10001d41 	.word	0x10001d41

10002030 <runtime_init_default_alarm_pool>:
10002030:	e92d 4ff8 	stmdb	sp!, {r3, r4, r5, r6, r7, r8, r9, sl, fp, lr}
10002034:	4c36      	ldr	r4, [pc, #216]	@ (10002110 <runtime_init_default_alarm_pool+0xe0>)
10002036:	6925      	ldr	r5, [r4, #16]
10002038:	b12d      	cbz	r5, 10002046 <runtime_init_default_alarm_pool+0x16>
1000203a:	e8bd 4ff8 	ldmia.w	sp!, {r3, r4, r5, r6, r7, r8, r9, sl, fp, lr}
1000203e:	210a      	movs	r1, #10
10002040:	4834      	ldr	r0, [pc, #208]	@ (10002114 <runtime_init_default_alarm_pool+0xe4>)
10002042:	f7ff be31 	b.w	10001ca8 <lock_init>
10002046:	f8df 80e4 	ldr.w	r8, [pc, #228]	@ 1000212c <runtime_init_default_alarm_pool+0xfc>
1000204a:	2103      	movs	r1, #3
1000204c:	4640      	mov	r0, r8
1000204e:	f000 f9e5 	bl	1000241c <timer_hardware_alarm_claim>
10002052:	2603      	movs	r6, #3
10002054:	f8c4 800c 	str.w	r8, [r4, #12]
10002058:	f7ff fd90 	bl	10001b7c <next_striped_spin_lock_num>
1000205c:	f04f 4c50 	mov.w	ip, #3489660928	@ 0xd0000000
10002060:	4b2d      	ldr	r3, [pc, #180]	@ (10002118 <runtime_init_default_alarm_pool+0xe8>)
10002062:	7026      	strb	r6, [r4, #0]
10002064:	4403      	add	r3, r0
10002066:	6123      	str	r3, [r4, #16]
10002068:	f8dc 3000 	ldr.w	r3, [ip]
1000206c:	210f      	movs	r1, #15
1000206e:	7063      	strb	r3, [r4, #1]
10002070:	6963      	ldr	r3, [r4, #20]
10002072:	8061      	strh	r1, [r4, #2]
10002074:	831d      	strh	r5, [r3, #24]
10002076:	f04f 0504 	mov.w	r5, #4
1000207a:	f8a3 5078 	strh.w	r5, [r3, #120]	@ 0x78
1000207e:	f04f 0505 	mov.w	r5, #5
10002082:	f8a3 5090 	strh.w	r5, [r3, #144]	@ 0x90
10002086:	f04f 0506 	mov.w	r5, #6
1000208a:	f8a3 50a8 	strh.w	r5, [r3, #168]	@ 0xa8
1000208e:	f04f 0507 	mov.w	r5, #7
10002092:	210e      	movs	r1, #14
10002094:	f64f 72ff 	movw	r2, #65535	@ 0xffff
10002098:	2708      	movs	r7, #8
1000209a:	f04f 0e0a 	mov.w	lr, #10
1000209e:	f8a3 50c0 	strh.w	r5, [r3, #192]	@ 0xc0
100020a2:	f04f 0901 	mov.w	r9, #1
100020a6:	f04f 0c0c 	mov.w	ip, #12
100020aa:	f04f 0b02 	mov.w	fp, #2
100020ae:	f04f 0a09 	mov.w	sl, #9
100020b2:	200d      	movs	r0, #13
100020b4:	f04f 050b 	mov.w	r5, #11
100020b8:	f8a3 1168 	strh.w	r1, [r3, #360]	@ 0x168
100020bc:	4917      	ldr	r1, [pc, #92]	@ (1000211c <runtime_init_default_alarm_pool+0xec>)
100020be:	80a2      	strh	r2, [r4, #4]
100020c0:	f8a3 e108 	strh.w	lr, [r3, #264]	@ 0x108
100020c4:	60a1      	str	r1, [r4, #8]
100020c6:	f8a3 b048 	strh.w	fp, [r3, #72]	@ 0x48
100020ca:	f8a3 a0f0 	strh.w	sl, [r3, #240]	@ 0xf0
100020ce:	f8a3 5120 	strh.w	r5, [r3, #288]	@ 0x120
100020d2:	f8a3 c138 	strh.w	ip, [r3, #312]	@ 0x138
100020d6:	f8a3 0150 	strh.w	r0, [r3, #336]	@ 0x150
100020da:	f8a3 9030 	strh.w	r9, [r3, #48]	@ 0x30
100020de:	f8a3 6060 	strh.w	r6, [r3, #96]	@ 0x60
100020e2:	f8a3 70d8 	strh.w	r7, [r3, #216]	@ 0xd8
100020e6:	801a      	strh	r2, [r3, #0]
100020e8:	4b0d      	ldr	r3, [pc, #52]	@ (10002120 <runtime_init_default_alarm_pool+0xf0>)
100020ea:	4630      	mov	r0, r6
100020ec:	f8c8 7020 	str.w	r7, [r8, #32]
100020f0:	490c      	ldr	r1, [pc, #48]	@ (10002124 <runtime_init_default_alarm_pool+0xf4>)
100020f2:	60dc      	str	r4, [r3, #12]
100020f4:	f7ff fda8 	bl	10001c48 <irq_set_exclusive_handler>
100020f8:	4649      	mov	r1, r9
100020fa:	4630      	mov	r0, r6
100020fc:	f7ff fd7e 	bl	10001bfc <irq_set_enabled>
10002100:	4b09      	ldr	r3, [pc, #36]	@ (10002128 <runtime_init_default_alarm_pool+0xf8>)
10002102:	210a      	movs	r1, #10
10002104:	641f      	str	r7, [r3, #64]	@ 0x40
10002106:	4803      	ldr	r0, [pc, #12]	@ (10002114 <runtime_init_default_alarm_pool+0xe4>)
10002108:	e8bd 4ff8 	ldmia.w	sp!, {r3, r4, r5, r6, r7, r8, r9, sl, fp, lr}
1000210c:	f7ff bdcc 	b.w	10001ca8 <lock_init>
10002110:	20000ac8 	.word	0x20000ac8
10002114:	20006f6c 	.word	0x20006f6c
10002118:	20001780 	.word	0x20001780
1000211c:	0010ffff 	.word	0x0010ffff
10002120:	20006f48 	.word	0x20006f48
10002124:	10001d41 	.word	0x10001d41
10002128:	400b2000 	.word	0x400b2000
1000212c:	400b0000 	.word	0x400b0000

10002130 <alarm_pool_add_alarm_at_force_in_context>:
10002130:	4601      	mov	r1, r0
10002132:	b5f0      	push	{r4, r5, r6, r7, lr}
10002134:	6900      	ldr	r0, [r0, #16]
10002136:	f3ef 8710 	mrs	r7, PRIMASK
1000213a:	b672      	cpsid	i
1000213c:	e8d0 5fcf 	ldaexb	r5, [r0]
10002140:	2401      	movs	r4, #1
10002142:	2d00      	cmp	r5, #0
10002144:	d1fa      	bne.n	1000213c <alarm_pool_add_alarm_at_force_in_context+0xc>
10002146:	e8c0 4f45 	strexb	r5, r4, [r0]
1000214a:	2d00      	cmp	r5, #0
1000214c:	d1f6      	bne.n	1000213c <alarm_pool_add_alarm_at_force_in_context+0xc>
1000214e:	f3bf 8f5f 	dmb	sy
10002152:	f9b1 e002 	ldrsh.w	lr, [r1, #2]
10002156:	694c      	ldr	r4, [r1, #20]
10002158:	eb0e 0c4e 	add.w	ip, lr, lr, lsl #1
1000215c:	f1be 0f00 	cmp.w	lr, #0
10002160:	ea4f 05cc 	mov.w	r5, ip, lsl #3
10002164:	eb04 0ccc 	add.w	ip, r4, ip, lsl #3
10002168:	db3d      	blt.n	100021e6 <alarm_pool_add_alarm_at_force_in_context+0xb6>
1000216a:	5b60      	ldrh	r0, [r4, r5]
1000216c:	2600      	movs	r6, #0
1000216e:	8048      	strh	r0, [r1, #2]
10002170:	6908      	ldr	r0, [r1, #16]
10002172:	e8c0 6f8f 	stlb	r6, [r0]
10002176:	f387 8810 	msr	PRIMASK, r7
1000217a:	f8bc 0002 	ldrh.w	r0, [ip, #2]
1000217e:	e9cc 2302 	strd	r2, r3, [ip, #8]
10002182:	3001      	adds	r0, #1
10002184:	f3c0 000e 	ubfx	r0, r0, #0, #15
10002188:	2801      	cmp	r0, #1
1000218a:	bf38      	it	cc
1000218c:	2001      	movcc	r0, #1
1000218e:	9b05      	ldr	r3, [sp, #20]
10002190:	f8ac 0002 	strh.w	r0, [ip, #2]
10002194:	f8cc 3010 	str.w	r3, [ip, #16]
10002198:	9b06      	ldr	r3, [sp, #24]
1000219a:	ea40 400e 	orr.w	r0, r0, lr, lsl #16
1000219e:	f8cc 3014 	str.w	r3, [ip, #20]
100021a2:	690b      	ldr	r3, [r1, #16]
100021a4:	f3ef 8210 	mrs	r2, PRIMASK
100021a8:	b672      	cpsid	i
100021aa:	e8d3 cfcf 	ldaexb	ip, [r3]
100021ae:	2701      	movs	r7, #1
100021b0:	f1bc 0f00 	cmp.w	ip, #0
100021b4:	d1f9      	bne.n	100021aa <alarm_pool_add_alarm_at_force_in_context+0x7a>
100021b6:	e8c3 7f4c 	strexb	ip, r7, [r3]
100021ba:	f1bc 0f00 	cmp.w	ip, #0
100021be:	d1f4      	bne.n	100021aa <alarm_pool_add_alarm_at_force_in_context+0x7a>
100021c0:	f3bf 8f5f 	dmb	sy
100021c4:	888b      	ldrh	r3, [r1, #4]
100021c6:	5363      	strh	r3, [r4, r5]
100021c8:	f8a1 e004 	strh.w	lr, [r1, #4]
100021cc:	690b      	ldr	r3, [r1, #16]
100021ce:	e8c3 6f8f 	stlb	r6, [r3]
100021d2:	f382 8810 	msr	PRIMASK, r2
100021d6:	2201      	movs	r2, #1
100021d8:	68cb      	ldr	r3, [r1, #12]
100021da:	7809      	ldrb	r1, [r1, #0]
100021dc:	f503 5301 	add.w	r3, r3, #8256	@ 0x2040
100021e0:	408a      	lsls	r2, r1
100021e2:	605a      	str	r2, [r3, #4]
100021e4:	bdf0      	pop	{r4, r5, r6, r7, pc}
100021e6:	2300      	movs	r3, #0
100021e8:	690a      	ldr	r2, [r1, #16]
100021ea:	e8c2 3f8f 	stlb	r3, [r2]
100021ee:	f387 8810 	msr	PRIMASK, r7
100021f2:	f04f 30ff 	mov.w	r0, #4294967295	@ 0xffffffff
100021f6:	bdf0      	pop	{r4, r5, r6, r7, pc}

100021f8 <alarm_pool_cancel_alarm>:
100021f8:	4603      	mov	r3, r0
100021fa:	8940      	ldrh	r0, [r0, #10]
100021fc:	ebb0 4f21 	cmp.w	r0, r1, asr #16
10002200:	dd37      	ble.n	10002272 <alarm_pool_cancel_alarm+0x7a>
10002202:	6958      	ldr	r0, [r3, #20]
10002204:	140a      	asrs	r2, r1, #16
10002206:	eb02 0242 	add.w	r2, r2, r2, lsl #1
1000220a:	b510      	push	{r4, lr}
1000220c:	eb00 00c2 	add.w	r0, r0, r2, lsl #3
10002210:	691c      	ldr	r4, [r3, #16]
10002212:	f3ef 8c10 	mrs	ip, PRIMASK
10002216:	b672      	cpsid	i
10002218:	e8d4 efcf 	ldaexb	lr, [r4]
1000221c:	2201      	movs	r2, #1
1000221e:	f1be 0f00 	cmp.w	lr, #0
10002222:	d1f9      	bne.n	10002218 <alarm_pool_cancel_alarm+0x20>
10002224:	e8c4 2f4e 	strexb	lr, r2, [r4]
10002228:	f1be 0f00 	cmp.w	lr, #0
1000222c:	d1f4      	bne.n	10002218 <alarm_pool_cancel_alarm+0x20>
1000222e:	f3bf 8f5f 	dmb	sy
10002232:	8842      	ldrh	r2, [r0, #2]
10002234:	b289      	uxth	r1, r1
10002236:	b292      	uxth	r2, r2
10002238:	428a      	cmp	r2, r1
1000223a:	d007      	beq.n	1000224c <alarm_pool_cancel_alarm+0x54>
1000223c:	2200      	movs	r2, #0
1000223e:	691b      	ldr	r3, [r3, #16]
10002240:	e8c3 2f8f 	stlb	r2, [r3]
10002244:	f38c 8810 	msr	PRIMASK, ip
10002248:	2000      	movs	r0, #0
1000224a:	bd10      	pop	{r4, pc}
1000224c:	f442 4200 	orr.w	r2, r2, #32768	@ 0x8000
10002250:	8042      	strh	r2, [r0, #2]
10002252:	2101      	movs	r1, #1
10002254:	2200      	movs	r2, #0
10002256:	6918      	ldr	r0, [r3, #16]
10002258:	7199      	strb	r1, [r3, #6]
1000225a:	e8c0 2f8f 	stlb	r2, [r0]
1000225e:	f38c 8810 	msr	PRIMASK, ip
10002262:	781c      	ldrb	r4, [r3, #0]
10002264:	68da      	ldr	r2, [r3, #12]
10002266:	4608      	mov	r0, r1
10002268:	f502 5301 	add.w	r3, r2, #8256	@ 0x2040
1000226c:	40a1      	lsls	r1, r4
1000226e:	6059      	str	r1, [r3, #4]
10002270:	bd10      	pop	{r4, pc}
10002272:	2000      	movs	r0, #0
10002274:	4770      	bx	lr
10002276:	bf00      	nop

10002278 <sleep_until>:
10002278:	e92d 41f0 	stmdb	sp!, {r4, r5, r6, r7, r8, lr}
1000227c:	1f86      	subs	r6, r0, #6
1000227e:	f141 35ff 	adc.w	r5, r1, #4294967295	@ 0xffffffff
10002282:	42b0      	cmp	r0, r6
10002284:	eb71 0305 	sbcs.w	r3, r1, r5
10002288:	bf38      	it	cc
1000228a:	2600      	movcc	r6, #0
1000228c:	b082      	sub	sp, #8
1000228e:	bf38      	it	cc
10002290:	4635      	movcc	r5, r6
10002292:	4604      	mov	r4, r0
10002294:	460f      	mov	r7, r1
10002296:	f000 f8db 	bl	10002450 <time_us_64>
1000229a:	1a30      	subs	r0, r6, r0
1000229c:	eb65 0301 	sbc.w	r3, r5, r1
100022a0:	2801      	cmp	r0, #1
100022a2:	f173 0300 	sbcs.w	r3, r3, #0
100022a6:	da06      	bge.n	100022b6 <sleep_until+0x3e>
100022a8:	4620      	mov	r0, r4
100022aa:	4639      	mov	r1, r7
100022ac:	b002      	add	sp, #8
100022ae:	e8bd 41f0 	ldmia.w	sp!, {r4, r5, r6, r7, r8, lr}
100022b2:	f000 b8d7 	b.w	10002464 <busy_wait_until>
100022b6:	f000 f8cb 	bl	10002450 <time_us_64>
100022ba:	4286      	cmp	r6, r0
100022bc:	eb65 0101 	sbc.w	r1, r5, r1
100022c0:	2900      	cmp	r1, #0
100022c2:	db0a      	blt.n	100022da <sleep_until+0x62>
100022c4:	2100      	movs	r1, #0
100022c6:	4b17      	ldr	r3, [pc, #92]	@ (10002324 <sleep_until+0xac>)
100022c8:	4632      	mov	r2, r6
100022ca:	9300      	str	r3, [sp, #0]
100022cc:	4816      	ldr	r0, [pc, #88]	@ (10002328 <sleep_until+0xb0>)
100022ce:	462b      	mov	r3, r5
100022d0:	9101      	str	r1, [sp, #4]
100022d2:	f7ff ff2d 	bl	10002130 <alarm_pool_add_alarm_at_force_in_context>
100022d6:	2800      	cmp	r0, #0
100022d8:	dbe6      	blt.n	100022a8 <sleep_until+0x30>
100022da:	f04f 0c00 	mov.w	ip, #0
100022de:	4813      	ldr	r0, [pc, #76]	@ (1000232c <sleep_until+0xb4>)
100022e0:	4a13      	ldr	r2, [pc, #76]	@ (10002330 <sleep_until+0xb8>)
100022e2:	6a43      	ldr	r3, [r0, #36]	@ 0x24
100022e4:	429d      	cmp	r5, r3
100022e6:	d804      	bhi.n	100022f2 <sleep_until+0x7a>
100022e8:	6a81      	ldr	r1, [r0, #40]	@ 0x28
100022ea:	42b1      	cmp	r1, r6
100022ec:	d2dc      	bcs.n	100022a8 <sleep_until+0x30>
100022ee:	429d      	cmp	r5, r3
100022f0:	d1da      	bne.n	100022a8 <sleep_until+0x30>
100022f2:	6813      	ldr	r3, [r2, #0]
100022f4:	f3ef 8110 	mrs	r1, PRIMASK
100022f8:	b672      	cpsid	i
100022fa:	e8d3 8fcf 	ldaexb	r8, [r3]
100022fe:	f05f 0e01 	movs.w	lr, #1
10002302:	f1b8 0f00 	cmp.w	r8, #0
10002306:	d1f8      	bne.n	100022fa <sleep_until+0x82>
10002308:	e8c3 ef48 	strexb	r8, lr, [r3]
1000230c:	f1b8 0f00 	cmp.w	r8, #0
10002310:	d1f3      	bne.n	100022fa <sleep_until+0x82>
10002312:	f3bf 8f5f 	dmb	sy
10002316:	6813      	ldr	r3, [r2, #0]
10002318:	e8c3 cf8f 	stlb	ip, [r3]
1000231c:	f381 8810 	msr	PRIMASK, r1
10002320:	bf20      	wfe
10002322:	e7de      	b.n	100022e2 <sleep_until+0x6a>
10002324:	10001d01 	.word	0x10001d01
10002328:	20000ac8 	.word	0x20000ac8
1000232c:	400b0000 	.word	0x400b0000
10002330:	20006f6c 	.word	0x20006f6c

10002334 <sleep_ms>:
10002334:	b510      	push	{r4, lr}
10002336:	4604      	mov	r4, r0
10002338:	f000 f88a 	bl	10002450 <time_us_64>
1000233c:	f44f 737a 	mov.w	r3, #1000	@ 0x3e8
10002340:	f04f 3cff 	mov.w	ip, #4294967295	@ 0xffffffff
10002344:	f06f 4200 	mvn.w	r2, #2147483648	@ 0x80000000
10002348:	fbe4 0103 	umlal	r0, r1, r4, r3
1000234c:	e8bd 4010 	ldmia.w	sp!, {r4, lr}
10002350:	4584      	cmp	ip, r0
10002352:	eb72 0301 	sbcs.w	r3, r2, r1
10002356:	bf3c      	itt	cc
10002358:	4660      	movcc	r0, ip
1000235a:	4611      	movcc	r1, r2
1000235c:	f7ff bf8c 	b.w	10002278 <sleep_until>

10002360 <best_effort_wfe_or_timeout>:
10002360:	e92d 43f0 	stmdb	sp!, {r4, r5, r6, r7, r8, r9, lr}
10002364:	4606      	mov	r6, r0
10002366:	460d      	mov	r5, r1
10002368:	b083      	sub	sp, #12
1000236a:	f3ef 8405 	mrs	r4, IPSR
1000236e:	b2e4      	uxtb	r4, r4
10002370:	b13c      	cbz	r4, 10002382 <best_effort_wfe_or_timeout+0x22>
10002372:	4b27      	ldr	r3, [pc, #156]	@ (10002410 <best_effort_wfe_or_timeout+0xb0>)
10002374:	6a58      	ldr	r0, [r3, #36]	@ 0x24
10002376:	42a8      	cmp	r0, r5
10002378:	d21c      	bcs.n	100023b4 <best_effort_wfe_or_timeout+0x54>
1000237a:	2000      	movs	r0, #0
1000237c:	b003      	add	sp, #12
1000237e:	e8bd 83f0 	ldmia.w	sp!, {r4, r5, r6, r7, r8, r9, pc}
10002382:	4f24      	ldr	r7, [pc, #144]	@ (10002414 <best_effort_wfe_or_timeout+0xb4>)
10002384:	f8d7 900c 	ldr.w	r9, [r7, #12]
10002388:	f897 8000 	ldrb.w	r8, [r7]
1000238c:	4648      	mov	r0, r9
1000238e:	f000 f857 	bl	10002440 <timer_time_us_64>
10002392:	f108 0804 	add.w	r8, r8, #4
10002396:	f859 3028 	ldr.w	r3, [r9, r8, lsl #2]
1000239a:	1a1b      	subs	r3, r3, r0
1000239c:	1a30      	subs	r0, r6, r0
1000239e:	eb65 0101 	sbc.w	r1, r5, r1
100023a2:	4298      	cmp	r0, r3
100023a4:	f171 0100 	sbcs.w	r1, r1, #0
100023a8:	db11      	blt.n	100023ce <best_effort_wfe_or_timeout+0x6e>
100023aa:	bf20      	wfe
100023ac:	4b18      	ldr	r3, [pc, #96]	@ (10002410 <best_effort_wfe_or_timeout+0xb0>)
100023ae:	6a58      	ldr	r0, [r3, #36]	@ 0x24
100023b0:	42a8      	cmp	r0, r5
100023b2:	d3e2      	bcc.n	1000237a <best_effort_wfe_or_timeout+0x1a>
100023b4:	6a9b      	ldr	r3, [r3, #40]	@ 0x28
100023b6:	42b3      	cmp	r3, r6
100023b8:	d303      	bcc.n	100023c2 <best_effort_wfe_or_timeout+0x62>
100023ba:	2001      	movs	r0, #1
100023bc:	b003      	add	sp, #12
100023be:	e8bd 83f0 	ldmia.w	sp!, {r4, r5, r6, r7, r8, r9, pc}
100023c2:	1b40      	subs	r0, r0, r5
100023c4:	bf18      	it	ne
100023c6:	2001      	movne	r0, #1
100023c8:	b003      	add	sp, #12
100023ca:	e8bd 83f0 	ldmia.w	sp!, {r4, r5, r6, r7, r8, r9, pc}
100023ce:	f000 f83f 	bl	10002450 <time_us_64>
100023d2:	4286      	cmp	r6, r0
100023d4:	eb65 0101 	sbc.w	r1, r5, r1
100023d8:	2900      	cmp	r1, #0
100023da:	dbca      	blt.n	10002372 <best_effort_wfe_or_timeout+0x12>
100023dc:	4b0e      	ldr	r3, [pc, #56]	@ (10002418 <best_effort_wfe_or_timeout+0xb8>)
100023de:	4638      	mov	r0, r7
100023e0:	e9cd 3400 	strd	r3, r4, [sp]
100023e4:	4632      	mov	r2, r6
100023e6:	462b      	mov	r3, r5
100023e8:	f7ff fea2 	bl	10002130 <alarm_pool_add_alarm_at_force_in_context>
100023ec:	1e01      	subs	r1, r0, #0
100023ee:	ddc0      	ble.n	10002372 <best_effort_wfe_or_timeout+0x12>
100023f0:	4b07      	ldr	r3, [pc, #28]	@ (10002410 <best_effort_wfe_or_timeout+0xb0>)
100023f2:	6a5a      	ldr	r2, [r3, #36]	@ 0x24
100023f4:	42aa      	cmp	r2, r5
100023f6:	d308      	bcc.n	1000240a <best_effort_wfe_or_timeout+0xaa>
100023f8:	6a9b      	ldr	r3, [r3, #40]	@ 0x28
100023fa:	42b3      	cmp	r3, r6
100023fc:	d303      	bcc.n	10002406 <best_effort_wfe_or_timeout+0xa6>
100023fe:	4805      	ldr	r0, [pc, #20]	@ (10002414 <best_effort_wfe_or_timeout+0xb4>)
10002400:	f7ff fefa 	bl	100021f8 <alarm_pool_cancel_alarm>
10002404:	e7b5      	b.n	10002372 <best_effort_wfe_or_timeout+0x12>
10002406:	42aa      	cmp	r2, r5
10002408:	d1f9      	bne.n	100023fe <best_effort_wfe_or_timeout+0x9e>
1000240a:	bf20      	wfe
1000240c:	e7f7      	b.n	100023fe <best_effort_wfe_or_timeout+0x9e>
1000240e:	bf00      	nop
10002410:	400b0000 	.word	0x400b0000
10002414:	20000ac8 	.word	0x20000ac8
10002418:	10001d01 	.word	0x10001d01

1000241c <timer_hardware_alarm_claim>:
1000241c:	b410      	push	{r4}
1000241e:	4b05      	ldr	r3, [pc, #20]	@ (10002434 <timer_hardware_alarm_claim+0x18>)
10002420:	4c05      	ldr	r4, [pc, #20]	@ (10002438 <timer_hardware_alarm_claim+0x1c>)
10002422:	4a06      	ldr	r2, [pc, #24]	@ (1000243c <timer_hardware_alarm_claim+0x20>)
10002424:	42a0      	cmp	r0, r4
10002426:	bf14      	ite	ne
10002428:	4618      	movne	r0, r3
1000242a:	1c58      	addeq	r0, r3, #1
1000242c:	f85d 4b04 	ldr.w	r4, [sp], #4
10002430:	f7ff bb2a 	b.w	10001a88 <hw_claim_or_assert>
10002434:	200019ac 	.word	0x200019ac
10002438:	400b8000 	.word	0x400b8000
1000243c:	1000494c 	.word	0x1000494c

10002440 <timer_time_us_64>:
10002440:	4603      	mov	r3, r0
10002442:	6a41      	ldr	r1, [r0, #36]	@ 0x24
10002444:	460a      	mov	r2, r1
10002446:	6a98      	ldr	r0, [r3, #40]	@ 0x28
10002448:	6a59      	ldr	r1, [r3, #36]	@ 0x24
1000244a:	428a      	cmp	r2, r1
1000244c:	d1fa      	bne.n	10002444 <timer_time_us_64+0x4>
1000244e:	4770      	bx	lr

10002450 <time_us_64>:
10002450:	4b03      	ldr	r3, [pc, #12]	@ (10002460 <time_us_64+0x10>)
10002452:	6a59      	ldr	r1, [r3, #36]	@ 0x24
10002454:	460a      	mov	r2, r1
10002456:	6a98      	ldr	r0, [r3, #40]	@ 0x28
10002458:	6a59      	ldr	r1, [r3, #36]	@ 0x24
1000245a:	4291      	cmp	r1, r2
1000245c:	d1fa      	bne.n	10002454 <time_us_64+0x4>
1000245e:	4770      	bx	lr
10002460:	400b0000 	.word	0x400b0000

10002464 <busy_wait_until>:
10002464:	4a07      	ldr	r2, [pc, #28]	@ (10002484 <busy_wait_until+0x20>)
10002466:	6a53      	ldr	r3, [r2, #36]	@ 0x24
10002468:	4299      	cmp	r1, r3
1000246a:	d8fc      	bhi.n	10002466 <busy_wait_until+0x2>
1000246c:	4299      	cmp	r1, r3
1000246e:	d107      	bne.n	10002480 <busy_wait_until+0x1c>
10002470:	4b04      	ldr	r3, [pc, #16]	@ (10002484 <busy_wait_until+0x20>)
10002472:	e002      	b.n	1000247a <busy_wait_until+0x16>
10002474:	6a5a      	ldr	r2, [r3, #36]	@ 0x24
10002476:	4291      	cmp	r1, r2
10002478:	d102      	bne.n	10002480 <busy_wait_until+0x1c>
1000247a:	6a9a      	ldr	r2, [r3, #40]	@ 0x28
1000247c:	4282      	cmp	r2, r0
1000247e:	d3f9      	bcc.n	10002474 <busy_wait_until+0x10>
10002480:	4770      	bx	lr
10002482:	bf00      	nop
10002484:	400b0000 	.word	0x400b0000

10002488 <queue_init_with_spinlock>:
10002488:	b570      	push	{r4, r5, r6, lr}
1000248a:	4616      	mov	r6, r2
1000248c:	460d      	mov	r5, r1
1000248e:	4619      	mov	r1, r3
10002490:	4604      	mov	r4, r0
10002492:	f7ff fc09 	bl	10001ca8 <lock_init>
10002496:	4629      	mov	r1, r5
10002498:	1c70      	adds	r0, r6, #1
1000249a:	f000 fc7b 	bl	10002d94 <__wrap_calloc>
1000249e:	2300      	movs	r3, #0
100024a0:	81e6      	strh	r6, [r4, #14]
100024a2:	6060      	str	r0, [r4, #4]
100024a4:	81a5      	strh	r5, [r4, #12]
100024a6:	60a3      	str	r3, [r4, #8]
100024a8:	bd70      	pop	{r4, r5, r6, pc}
100024aa:	bf00      	nop

100024ac <queue_add_blocking>:
100024ac:	b538      	push	{r3, r4, r5, lr}
100024ae:	f04f 0e00 	mov.w	lr, #0
100024b2:	4604      	mov	r4, r0
100024b4:	e008      	b.n	100024c8 <queue_add_blocking+0x1c>
100024b6:	89e2      	ldrh	r2, [r4, #14]
100024b8:	4293      	cmp	r3, r2
100024ba:	d11f      	bne.n	100024fc <queue_add_blocking+0x50>
100024bc:	6823      	ldr	r3, [r4, #0]
100024be:	e8c3 ef8f 	stlb	lr, [r3]
100024c2:	f385 8810 	msr	PRIMASK, r5
100024c6:	bf20      	wfe
100024c8:	6823      	ldr	r3, [r4, #0]
100024ca:	f3ef 8510 	mrs	r5, PRIMASK
100024ce:	b672      	cpsid	i
100024d0:	e8d3 0fcf 	ldaexb	r0, [r3]
100024d4:	2201      	movs	r2, #1
100024d6:	2800      	cmp	r0, #0
100024d8:	d1fa      	bne.n	100024d0 <queue_add_blocking+0x24>
100024da:	e8c3 2f40 	strexb	r0, r2, [r3]
100024de:	2800      	cmp	r0, #0
100024e0:	d1f6      	bne.n	100024d0 <queue_add_blocking+0x24>
100024e2:	f3bf 8f5f 	dmb	sy
100024e6:	8920      	ldrh	r0, [r4, #8]
100024e8:	8963      	ldrh	r3, [r4, #10]
100024ea:	1ac3      	subs	r3, r0, r3
100024ec:	d5e3      	bpl.n	100024b6 <queue_add_blocking+0xa>
100024ee:	f8b4 c00e 	ldrh.w	ip, [r4, #14]
100024f2:	f10c 0201 	add.w	r2, ip, #1
100024f6:	4413      	add	r3, r2
100024f8:	459c      	cmp	ip, r3
100024fa:	d0df      	beq.n	100024bc <queue_add_blocking+0x10>
100024fc:	89a2      	ldrh	r2, [r4, #12]
100024fe:	6863      	ldr	r3, [r4, #4]
10002500:	fb02 3000 	mla	r0, r2, r0, r3
10002504:	f002 f8a8 	bl	10004658 <memcpy>
10002508:	2200      	movs	r2, #0
1000250a:	8923      	ldrh	r3, [r4, #8]
1000250c:	89e1      	ldrh	r1, [r4, #14]
1000250e:	3301      	adds	r3, #1
10002510:	b29b      	uxth	r3, r3
10002512:	4299      	cmp	r1, r3
10002514:	bf38      	it	cc
10002516:	4613      	movcc	r3, r2
10002518:	6821      	ldr	r1, [r4, #0]
1000251a:	8123      	strh	r3, [r4, #8]
1000251c:	e8c1 2f8f 	stlb	r2, [r1]
10002520:	f385 8810 	msr	PRIMASK, r5
10002524:	bf40      	sev
10002526:	bd38      	pop	{r3, r4, r5, pc}

10002528 <queue_remove_blocking>:
10002528:	b538      	push	{r3, r4, r5, lr}
1000252a:	4604      	mov	r4, r0
1000252c:	f04f 0e00 	mov.w	lr, #0
10002530:	4608      	mov	r0, r1
10002532:	e006      	b.n	10002542 <queue_remove_blocking+0x1a>
10002534:	d121      	bne.n	1000257a <queue_remove_blocking+0x52>
10002536:	6823      	ldr	r3, [r4, #0]
10002538:	e8c3 ef8f 	stlb	lr, [r3]
1000253c:	f385 8810 	msr	PRIMASK, r5
10002540:	bf20      	wfe
10002542:	6823      	ldr	r3, [r4, #0]
10002544:	f3ef 8510 	mrs	r5, PRIMASK
10002548:	b672      	cpsid	i
1000254a:	e8d3 cfcf 	ldaexb	ip, [r3]
1000254e:	2201      	movs	r2, #1
10002550:	f1bc 0f00 	cmp.w	ip, #0
10002554:	d1f9      	bne.n	1000254a <queue_remove_blocking+0x22>
10002556:	e8c3 2f4c 	strexb	ip, r2, [r3]
1000255a:	f1bc 0f00 	cmp.w	ip, #0
1000255e:	d1f4      	bne.n	1000254a <queue_remove_blocking+0x22>
10002560:	f3bf 8f5f 	dmb	sy
10002564:	f8b4 c00a 	ldrh.w	ip, [r4, #10]
10002568:	8923      	ldrh	r3, [r4, #8]
1000256a:	eba3 030c 	sub.w	r3, r3, ip
1000256e:	2b00      	cmp	r3, #0
10002570:	dae0      	bge.n	10002534 <queue_remove_blocking+0xc>
10002572:	89e2      	ldrh	r2, [r4, #14]
10002574:	3201      	adds	r2, #1
10002576:	42da      	cmn	r2, r3
10002578:	d0dd      	beq.n	10002536 <queue_remove_blocking+0xe>
1000257a:	b138      	cbz	r0, 1000258c <queue_remove_blocking+0x64>
1000257c:	89a2      	ldrh	r2, [r4, #12]
1000257e:	6861      	ldr	r1, [r4, #4]
10002580:	fb02 110c 	mla	r1, r2, ip, r1
10002584:	f002 f868 	bl	10004658 <memcpy>
10002588:	f8b4 c00a 	ldrh.w	ip, [r4, #10]
1000258c:	89e3      	ldrh	r3, [r4, #14]
1000258e:	f10c 0c01 	add.w	ip, ip, #1
10002592:	fa1f fc8c 	uxth.w	ip, ip
10002596:	4563      	cmp	r3, ip
10002598:	bf38      	it	cc
1000259a:	f04f 0c00 	movcc.w	ip, #0
1000259e:	6822      	ldr	r2, [r4, #0]
100025a0:	2300      	movs	r3, #0
100025a2:	f8a4 c00a 	strh.w	ip, [r4, #10]
100025a6:	e8c2 3f8f 	stlb	r3, [r2]
100025aa:	f385 8810 	msr	PRIMASK, r5
100025ae:	bf40      	sev
100025b0:	bd38      	pop	{r3, r4, r5, pc}
100025b2:	bf00      	nop

100025b4 <clock_configure_undivided>:
100025b4:	eb00 0c40 	add.w	ip, r0, r0, lsl #1
100025b8:	ea4f 0c8c 	mov.w	ip, ip, lsl #2
100025bc:	f10c 4c80 	add.w	ip, ip, #1073741824	@ 0x40000000
100025c0:	f50c 3c80 	add.w	ip, ip, #65536	@ 0x10000
100025c4:	b5f0      	push	{r4, r5, r6, r7, lr}
100025c6:	4616      	mov	r6, r2
100025c8:	f8dc 2004 	ldr.w	r2, [ip, #4]
100025cc:	1f05      	subs	r5, r0, #4
100025ce:	f5b2 3f80 	cmp.w	r2, #65536	@ 0x10000
100025d2:	bf38      	it	cc
100025d4:	f44f 3280 	movcc.w	r2, #65536	@ 0x10000
100025d8:	b2ed      	uxtb	r5, r5
100025da:	bf38      	it	cc
100025dc:	f8cc 2004 	strcc.w	r2, [ip, #4]
100025e0:	2d01      	cmp	r5, #1
100025e2:	d92a      	bls.n	1000263a <clock_configure_undivided+0x86>
100025e4:	f44f 6700 	mov.w	r7, #2048	@ 0x800
100025e8:	4c25      	ldr	r4, [pc, #148]	@ (10002680 <clock_configure_undivided+0xcc>)
100025ea:	f50c 5240 	add.w	r2, ip, #12288	@ 0x3000
100025ee:	6017      	str	r7, [r2, #0]
100025f0:	f854 2020 	ldr.w	r2, [r4, r0, lsl #2]
100025f4:	b9b2      	cbnz	r2, 10002624 <clock_configure_undivided+0x70>
100025f6:	f8dc 2000 	ldr.w	r2, [ip]
100025fa:	2d01      	cmp	r5, #1
100025fc:	ea82 1246 	eor.w	r2, r2, r6, lsl #5
10002600:	f002 02e0 	and.w	r2, r2, #224	@ 0xe0
10002604:	f50c 5680 	add.w	r6, ip, #4096	@ 0x1000
10002608:	6032      	str	r2, [r6, #0]
1000260a:	d92a      	bls.n	10002662 <clock_configure_undivided+0xae>
1000260c:	f44f 6100 	mov.w	r1, #2048	@ 0x800
10002610:	f844 3020 	str.w	r3, [r4, r0, lsl #2]
10002614:	f44f 3380 	mov.w	r3, #65536	@ 0x10000
10002618:	f50c 5200 	add.w	r2, ip, #8192	@ 0x2000
1000261c:	6011      	str	r1, [r2, #0]
1000261e:	f8cc 3004 	str.w	r3, [ip, #4]
10002622:	bdf0      	pop	{r4, r5, r6, r7, pc}
10002624:	6967      	ldr	r7, [r4, #20]
10002626:	fbb7 fef2 	udiv	lr, r7, r2
1000262a:	f10e 0e01 	add.w	lr, lr, #1
1000262e:	eb0e 0e4e 	add.w	lr, lr, lr, lsl #1
10002632:	f1be 0e03 	subs.w	lr, lr, #3
10002636:	d2fc      	bcs.n	10002632 <clock_configure_undivided+0x7e>
10002638:	e7dd      	b.n	100025f6 <clock_configure_undivided+0x42>
1000263a:	2901      	cmp	r1, #1
1000263c:	d1d2      	bne.n	100025e4 <clock_configure_undivided+0x30>
1000263e:	2403      	movs	r4, #3
10002640:	f50c 5240 	add.w	r2, ip, #12288	@ 0x3000
10002644:	6014      	str	r4, [r2, #0]
10002646:	f8dc 2008 	ldr.w	r2, [ip, #8]
1000264a:	07d2      	lsls	r2, r2, #31
1000264c:	d5fb      	bpl.n	10002646 <clock_configure_undivided+0x92>
1000264e:	f8dc 2000 	ldr.w	r2, [ip]
10002652:	4c0b      	ldr	r4, [pc, #44]	@ (10002680 <clock_configure_undivided+0xcc>)
10002654:	ea82 1246 	eor.w	r2, r2, r6, lsl #5
10002658:	f002 02e0 	and.w	r2, r2, #224	@ 0xe0
1000265c:	f50c 5680 	add.w	r6, ip, #4096	@ 0x1000
10002660:	6032      	str	r2, [r6, #0]
10002662:	2201      	movs	r2, #1
10002664:	f8dc 5000 	ldr.w	r5, [ip]
10002668:	404d      	eors	r5, r1
1000266a:	f005 0503 	and.w	r5, r5, #3
1000266e:	6035      	str	r5, [r6, #0]
10002670:	fa02 f101 	lsl.w	r1, r2, r1
10002674:	f8dc 2008 	ldr.w	r2, [ip, #8]
10002678:	420a      	tst	r2, r1
1000267a:	d0fb      	beq.n	10002674 <clock_configure_undivided+0xc0>
1000267c:	e7c6      	b.n	1000260c <clock_configure_undivided+0x58>
1000267e:	bf00      	nop
10002680:	200056f8 	.word	0x200056f8

10002684 <clock_get_hz>:
10002684:	4b01      	ldr	r3, [pc, #4]	@ (1000268c <clock_get_hz+0x8>)
10002686:	f853 0020 	ldr.w	r0, [r3, r0, lsl #2]
1000268a:	4770      	bx	lr
1000268c:	200056f8 	.word	0x200056f8

10002690 <set_sys_clock_pll>:
10002690:	4b58      	ldr	r3, [pc, #352]	@ (100027f4 <set_sys_clock_pll+0x164>)
10002692:	e92d 43f0 	stmdb	sp!, {r4, r5, r6, r7, r8, r9, lr}
10002696:	6c1c      	ldr	r4, [r3, #64]	@ 0x40
10002698:	4617      	mov	r7, r2
1000269a:	f5b4 3f80 	cmp.w	r4, #65536	@ 0x10000
1000269e:	bf38      	it	cc
100026a0:	f44f 3280 	movcc.w	r2, #65536	@ 0x10000
100026a4:	460e      	mov	r6, r1
100026a6:	f04f 0103 	mov.w	r1, #3
100026aa:	4680      	mov	r8, r0
100026ac:	bf38      	it	cc
100026ae:	641a      	strcc	r2, [r3, #64]	@ 0x40
100026b0:	4a51      	ldr	r2, [pc, #324]	@ (100027f8 <set_sys_clock_pll+0x168>)
100026b2:	4b50      	ldr	r3, [pc, #320]	@ (100027f4 <set_sys_clock_pll+0x164>)
100026b4:	b083      	sub	sp, #12
100026b6:	63d1      	str	r1, [r2, #60]	@ 0x3c
100026b8:	6c5c      	ldr	r4, [r3, #68]	@ 0x44
100026ba:	07e5      	lsls	r5, r4, #31
100026bc:	d5fc      	bpl.n	100026b8 <set_sys_clock_pll+0x28>
100026be:	6bda      	ldr	r2, [r3, #60]	@ 0x3c
100026c0:	494e      	ldr	r1, [pc, #312]	@ (100027fc <set_sys_clock_pll+0x16c>)
100026c2:	f082 0220 	eor.w	r2, r2, #32
100026c6:	f002 02e0 	and.w	r2, r2, #224	@ 0xe0
100026ca:	63ca      	str	r2, [r1, #60]	@ 0x3c
100026cc:	6bdb      	ldr	r3, [r3, #60]	@ 0x3c
100026ce:	4d49      	ldr	r5, [pc, #292]	@ (100027f4 <set_sys_clock_pll+0x164>)
100026d0:	f083 0301 	eor.w	r3, r3, #1
100026d4:	f003 0303 	and.w	r3, r3, #3
100026d8:	63cb      	str	r3, [r1, #60]	@ 0x3c
100026da:	6c6c      	ldr	r4, [r5, #68]	@ 0x44
100026dc:	07a4      	lsls	r4, r4, #30
100026de:	d5fc      	bpl.n	100026da <set_sys_clock_pll+0x4a>
100026e0:	f44f 6200 	mov.w	r2, #2048	@ 0x800
100026e4:	f44f 3980 	mov.w	r9, #65536	@ 0x10000
100026e8:	4b45      	ldr	r3, [pc, #276]	@ (10002800 <set_sys_clock_pll+0x170>)
100026ea:	4c46      	ldr	r4, [pc, #280]	@ (10002804 <set_sys_clock_pll+0x174>)
100026ec:	63da      	str	r2, [r3, #60]	@ 0x3c
100026ee:	4b46      	ldr	r3, [pc, #280]	@ (10002808 <set_sys_clock_pll+0x178>)
100026f0:	4642      	mov	r2, r8
100026f2:	6163      	str	r3, [r4, #20]
100026f4:	2101      	movs	r1, #1
100026f6:	4633      	mov	r3, r6
100026f8:	f8c5 9040 	str.w	r9, [r5, #64]	@ 0x40
100026fc:	4843      	ldr	r0, [pc, #268]	@ (1000280c <set_sys_clock_pll+0x17c>)
100026fe:	9700      	str	r7, [sp, #0]
10002700:	f000 f956 	bl	100029b0 <pll_init>
10002704:	f44f 6100 	mov.w	r1, #2048	@ 0x800
10002708:	6b6b      	ldr	r3, [r5, #52]	@ 0x34
1000270a:	fb07 f606 	mul.w	r6, r7, r6
1000270e:	454b      	cmp	r3, r9
10002710:	bf38      	it	cc
10002712:	f8c5 9034 	strcc.w	r9, [r5, #52]	@ 0x34
10002716:	4b38      	ldr	r3, [pc, #224]	@ (100027f8 <set_sys_clock_pll+0x168>)
10002718:	6922      	ldr	r2, [r4, #16]
1000271a:	fbb8 f6f6 	udiv	r6, r8, r6
1000271e:	6319      	str	r1, [r3, #48]	@ 0x30
10002720:	b13a      	cbz	r2, 10002732 <set_sys_clock_pll+0xa2>
10002722:	6963      	ldr	r3, [r4, #20]
10002724:	fbb3 f3f2 	udiv	r3, r3, r2
10002728:	3301      	adds	r3, #1
1000272a:	eb03 0343 	add.w	r3, r3, r3, lsl #1
1000272e:	3b03      	subs	r3, #3
10002730:	d2fd      	bcs.n	1000272e <set_sys_clock_pll+0x9e>
10002732:	4b30      	ldr	r3, [pc, #192]	@ (100027f4 <set_sys_clock_pll+0x164>)
10002734:	4931      	ldr	r1, [pc, #196]	@ (100027fc <set_sys_clock_pll+0x16c>)
10002736:	6b1a      	ldr	r2, [r3, #48]	@ 0x30
10002738:	f002 02e0 	and.w	r2, r2, #224	@ 0xe0
1000273c:	630a      	str	r2, [r1, #48]	@ 0x30
1000273e:	6b1a      	ldr	r2, [r3, #48]	@ 0x30
10002740:	f082 0202 	eor.w	r2, r2, #2
10002744:	f002 0203 	and.w	r2, r2, #3
10002748:	630a      	str	r2, [r1, #48]	@ 0x30
1000274a:	6b99      	ldr	r1, [r3, #56]	@ 0x38
1000274c:	0748      	lsls	r0, r1, #29
1000274e:	d5fc      	bpl.n	1000274a <set_sys_clock_pll+0xba>
10002750:	f44f 6500 	mov.w	r5, #2048	@ 0x800
10002754:	f44f 3280 	mov.w	r2, #65536	@ 0x10000
10002758:	4929      	ldr	r1, [pc, #164]	@ (10002800 <set_sys_clock_pll+0x170>)
1000275a:	630d      	str	r5, [r1, #48]	@ 0x30
1000275c:	492c      	ldr	r1, [pc, #176]	@ (10002810 <set_sys_clock_pll+0x180>)
1000275e:	635a      	str	r2, [r3, #52]	@ 0x34
10002760:	6121      	str	r1, [r4, #16]
10002762:	6c19      	ldr	r1, [r3, #64]	@ 0x40
10002764:	4291      	cmp	r1, r2
10002766:	f04f 0103 	mov.w	r1, #3
1000276a:	bf38      	it	cc
1000276c:	641a      	strcc	r2, [r3, #64]	@ 0x40
1000276e:	4b22      	ldr	r3, [pc, #136]	@ (100027f8 <set_sys_clock_pll+0x168>)
10002770:	4a20      	ldr	r2, [pc, #128]	@ (100027f4 <set_sys_clock_pll+0x164>)
10002772:	63d9      	str	r1, [r3, #60]	@ 0x3c
10002774:	6c53      	ldr	r3, [r2, #68]	@ 0x44
10002776:	07d9      	lsls	r1, r3, #31
10002778:	d5fc      	bpl.n	10002774 <set_sys_clock_pll+0xe4>
1000277a:	6bd3      	ldr	r3, [r2, #60]	@ 0x3c
1000277c:	4d1f      	ldr	r5, [pc, #124]	@ (100027fc <set_sys_clock_pll+0x16c>)
1000277e:	f003 03e0 	and.w	r3, r3, #224	@ 0xe0
10002782:	63eb      	str	r3, [r5, #60]	@ 0x3c
10002784:	6bd3      	ldr	r3, [r2, #60]	@ 0x3c
10002786:	491b      	ldr	r1, [pc, #108]	@ (100027f4 <set_sys_clock_pll+0x164>)
10002788:	f083 0301 	eor.w	r3, r3, #1
1000278c:	f003 0303 	and.w	r3, r3, #3
10002790:	63eb      	str	r3, [r5, #60]	@ 0x3c
10002792:	6c4b      	ldr	r3, [r1, #68]	@ 0x44
10002794:	079b      	lsls	r3, r3, #30
10002796:	d5fc      	bpl.n	10002792 <set_sys_clock_pll+0x102>
10002798:	f44f 3380 	mov.w	r3, #65536	@ 0x10000
1000279c:	f44f 6500 	mov.w	r5, #2048	@ 0x800
100027a0:	4a17      	ldr	r2, [pc, #92]	@ (10002800 <set_sys_clock_pll+0x170>)
100027a2:	6166      	str	r6, [r4, #20]
100027a4:	63d5      	str	r5, [r2, #60]	@ 0x3c
100027a6:	640b      	str	r3, [r1, #64]	@ 0x40
100027a8:	6cca      	ldr	r2, [r1, #76]	@ 0x4c
100027aa:	429a      	cmp	r2, r3
100027ac:	bf38      	it	cc
100027ae:	64cb      	strcc	r3, [r1, #76]	@ 0x4c
100027b0:	f44f 6100 	mov.w	r1, #2048	@ 0x800
100027b4:	4b10      	ldr	r3, [pc, #64]	@ (100027f8 <set_sys_clock_pll+0x168>)
100027b6:	69a2      	ldr	r2, [r4, #24]
100027b8:	6499      	str	r1, [r3, #72]	@ 0x48
100027ba:	b13a      	cbz	r2, 100027cc <set_sys_clock_pll+0x13c>
100027bc:	6963      	ldr	r3, [r4, #20]
100027be:	fbb3 f3f2 	udiv	r3, r3, r2
100027c2:	3301      	adds	r3, #1
100027c4:	eb03 0343 	add.w	r3, r3, r3, lsl #1
100027c8:	3b03      	subs	r3, #3
100027ca:	d2fd      	bcs.n	100027c8 <set_sys_clock_pll+0x138>
100027cc:	f44f 6000 	mov.w	r0, #2048	@ 0x800
100027d0:	f44f 3180 	mov.w	r1, #65536	@ 0x10000
100027d4:	4a07      	ldr	r2, [pc, #28]	@ (100027f4 <set_sys_clock_pll+0x164>)
100027d6:	4d09      	ldr	r5, [pc, #36]	@ (100027fc <set_sys_clock_pll+0x16c>)
100027d8:	6c93      	ldr	r3, [r2, #72]	@ 0x48
100027da:	f083 0340 	eor.w	r3, r3, #64	@ 0x40
100027de:	f003 03e0 	and.w	r3, r3, #224	@ 0xe0
100027e2:	64ab      	str	r3, [r5, #72]	@ 0x48
100027e4:	4b06      	ldr	r3, [pc, #24]	@ (10002800 <set_sys_clock_pll+0x170>)
100027e6:	4d08      	ldr	r5, [pc, #32]	@ (10002808 <set_sys_clock_pll+0x178>)
100027e8:	61a5      	str	r5, [r4, #24]
100027ea:	6498      	str	r0, [r3, #72]	@ 0x48
100027ec:	64d1      	str	r1, [r2, #76]	@ 0x4c
100027ee:	b003      	add	sp, #12
100027f0:	e8bd 83f0 	ldmia.w	sp!, {r4, r5, r6, r7, r8, r9, pc}
100027f4:	40010000 	.word	0x40010000
100027f8:	40013000 	.word	0x40013000
100027fc:	40011000 	.word	0x40011000
10002800:	40012000 	.word	0x40012000
10002804:	200056f8 	.word	0x200056f8
10002808:	02dc6c00 	.word	0x02dc6c00
1000280c:	40050000 	.word	0x40050000
10002810:	00b71b00 	.word	0x00b71b00

10002814 <check_sys_clock_khz>:
10002814:	e92d 4ff0 	stmdb	sp!, {r4, r5, r6, r7, r8, r9, sl, fp, lr}
10002818:	f44f 78a0 	mov.w	r8, #320	@ 0x140
1000281c:	4699      	mov	r9, r3
1000281e:	b085      	sub	sp, #20
10002820:	e9cd 1202 	strd	r1, r2, [sp, #8]
10002824:	4c5f      	ldr	r4, [pc, #380]	@ (100029a4 <check_sys_clock_khz+0x190>)
10002826:	f8df a184 	ldr.w	sl, [pc, #388]	@ 100029ac <check_sys_clock_khz+0x198>
1000282a:	4554      	cmp	r4, sl
1000282c:	d90a      	bls.n	10002844 <check_sys_clock_khz+0x30>
1000282e:	f108 38ff 	add.w	r8, r8, #4294967295	@ 0xffffffff
10002832:	f5a4 543b 	sub.w	r4, r4, #11968	@ 0x2ec0
10002836:	f1b8 0f0f 	cmp.w	r8, #15
1000283a:	f1a4 0420 	sub.w	r4, r4, #32
1000283e:	d1f4      	bne.n	1000282a <check_sys_clock_khz+0x16>
10002840:	2000      	movs	r0, #0
10002842:	e069      	b.n	10002918 <check_sys_clock_khz+0x104>
10002844:	2307      	movs	r3, #7
10002846:	f504 2237 	add.w	r2, r4, #749568	@ 0xb7000
1000284a:	9401      	str	r4, [sp, #4]
1000284c:	fb03 f403 	mul.w	r4, r3, r3
10002850:	f502 72d8 	add.w	r2, r2, #432	@ 0x1b0
10002854:	fbb2 fef4 	udiv	lr, r2, r4
10002858:	4570      	cmp	r0, lr
1000285a:	f04f 0c01 	mov.w	ip, #1
1000285e:	f04f 0702 	mov.w	r7, #2
10002862:	f04f 0603 	mov.w	r6, #3
10002866:	f04f 0504 	mov.w	r5, #4
1000286a:	f04f 0105 	mov.w	r1, #5
1000286e:	d03f      	beq.n	100028f0 <check_sys_clock_khz+0xdc>
10002870:	f1b3 0e01 	subs.w	lr, r3, #1
10002874:	f000 8094 	beq.w	100029a0 <check_sys_clock_khz+0x18c>
10002878:	fb0e f403 	mul.w	r4, lr, r3
1000287c:	fbb2 fbf4 	udiv	fp, r2, r4
10002880:	4558      	cmp	r0, fp
10002882:	d04c      	beq.n	1000291e <check_sys_clock_khz+0x10a>
10002884:	b319      	cbz	r1, 100028ce <check_sys_clock_khz+0xba>
10002886:	fb01 f403 	mul.w	r4, r1, r3
1000288a:	fbb2 fbf4 	udiv	fp, r2, r4
1000288e:	4558      	cmp	r0, fp
10002890:	d04f      	beq.n	10002932 <check_sys_clock_khz+0x11e>
10002892:	b1e5      	cbz	r5, 100028ce <check_sys_clock_khz+0xba>
10002894:	fb05 f403 	mul.w	r4, r5, r3
10002898:	fbb2 fbf4 	udiv	fp, r2, r4
1000289c:	4558      	cmp	r0, fp
1000289e:	d053      	beq.n	10002948 <check_sys_clock_khz+0x134>
100028a0:	b1ae      	cbz	r6, 100028ce <check_sys_clock_khz+0xba>
100028a2:	fb06 f403 	mul.w	r4, r6, r3
100028a6:	fbb2 fbf4 	udiv	fp, r2, r4
100028aa:	4558      	cmp	r0, fp
100028ac:	d057      	beq.n	1000295e <check_sys_clock_khz+0x14a>
100028ae:	b177      	cbz	r7, 100028ce <check_sys_clock_khz+0xba>
100028b0:	fb07 f403 	mul.w	r4, r7, r3
100028b4:	fbb2 fbf4 	udiv	fp, r2, r4
100028b8:	4558      	cmp	r0, fp
100028ba:	d05b      	beq.n	10002974 <check_sys_clock_khz+0x160>
100028bc:	f1bc 0f00 	cmp.w	ip, #0
100028c0:	d005      	beq.n	100028ce <check_sys_clock_khz+0xba>
100028c2:	fb0c f403 	mul.w	r4, ip, r3
100028c6:	fbb2 fbf4 	udiv	fp, r2, r4
100028ca:	4583      	cmp	fp, r0
100028cc:	d05d      	beq.n	1000298a <check_sys_clock_khz+0x176>
100028ce:	4673      	mov	r3, lr
100028d0:	fb03 f403 	mul.w	r4, r3, r3
100028d4:	fbb2 fef4 	udiv	lr, r2, r4
100028d8:	4570      	cmp	r0, lr
100028da:	f101 31ff 	add.w	r1, r1, #4294967295	@ 0xffffffff
100028de:	f105 35ff 	add.w	r5, r5, #4294967295	@ 0xffffffff
100028e2:	f106 36ff 	add.w	r6, r6, #4294967295	@ 0xffffffff
100028e6:	f107 37ff 	add.w	r7, r7, #4294967295	@ 0xffffffff
100028ea:	f10c 3cff 	add.w	ip, ip, #4294967295	@ 0xffffffff
100028ee:	d1bf      	bne.n	10002870 <check_sys_clock_khz+0x5c>
100028f0:	fb04 2410 	mls	r4, r4, r0, r2
100028f4:	2c00      	cmp	r4, #0
100028f6:	d1bb      	bne.n	10002870 <check_sys_clock_khz+0x5c>
100028f8:	469e      	mov	lr, r3
100028fa:	464a      	mov	r2, r9
100028fc:	f8dd b008 	ldr.w	fp, [sp, #8]
10002900:	f8dd 900c 	ldr.w	r9, [sp, #12]
10002904:	2001      	movs	r0, #1
10002906:	4928      	ldr	r1, [pc, #160]	@ (100029a8 <check_sys_clock_khz+0x194>)
10002908:	fb01 f108 	mul.w	r1, r1, r8
1000290c:	f8cb 1000 	str.w	r1, [fp]
10002910:	f8c9 3000 	str.w	r3, [r9]
10002914:	f8c2 e000 	str.w	lr, [r2]
10002918:	b005      	add	sp, #20
1000291a:	e8bd 8ff0 	ldmia.w	sp!, {r4, r5, r6, r7, r8, r9, sl, fp, pc}
1000291e:	fb04 2410 	mls	r4, r4, r0, r2
10002922:	2c00      	cmp	r4, #0
10002924:	d1ae      	bne.n	10002884 <check_sys_clock_khz+0x70>
10002926:	464a      	mov	r2, r9
10002928:	f8dd b008 	ldr.w	fp, [sp, #8]
1000292c:	f8dd 900c 	ldr.w	r9, [sp, #12]
10002930:	e7e8      	b.n	10002904 <check_sys_clock_khz+0xf0>
10002932:	fb04 2410 	mls	r4, r4, r0, r2
10002936:	2c00      	cmp	r4, #0
10002938:	d1ab      	bne.n	10002892 <check_sys_clock_khz+0x7e>
1000293a:	464a      	mov	r2, r9
1000293c:	468e      	mov	lr, r1
1000293e:	f8dd b008 	ldr.w	fp, [sp, #8]
10002942:	f8dd 900c 	ldr.w	r9, [sp, #12]
10002946:	e7dd      	b.n	10002904 <check_sys_clock_khz+0xf0>
10002948:	fb04 2410 	mls	r4, r4, r0, r2
1000294c:	2c00      	cmp	r4, #0
1000294e:	d1a7      	bne.n	100028a0 <check_sys_clock_khz+0x8c>
10002950:	464a      	mov	r2, r9
10002952:	46ae      	mov	lr, r5
10002954:	f8dd b008 	ldr.w	fp, [sp, #8]
10002958:	f8dd 900c 	ldr.w	r9, [sp, #12]
1000295c:	e7d2      	b.n	10002904 <check_sys_clock_khz+0xf0>
1000295e:	fb04 2410 	mls	r4, r4, r0, r2
10002962:	2c00      	cmp	r4, #0
10002964:	d1a3      	bne.n	100028ae <check_sys_clock_khz+0x9a>
10002966:	464a      	mov	r2, r9
10002968:	46b6      	mov	lr, r6
1000296a:	f8dd b008 	ldr.w	fp, [sp, #8]
1000296e:	f8dd 900c 	ldr.w	r9, [sp, #12]
10002972:	e7c7      	b.n	10002904 <check_sys_clock_khz+0xf0>
10002974:	fb04 2410 	mls	r4, r4, r0, r2
10002978:	2c00      	cmp	r4, #0
1000297a:	d19f      	bne.n	100028bc <check_sys_clock_khz+0xa8>
1000297c:	464a      	mov	r2, r9
1000297e:	46be      	mov	lr, r7
10002980:	f8dd b008 	ldr.w	fp, [sp, #8]
10002984:	f8dd 900c 	ldr.w	r9, [sp, #12]
10002988:	e7bc      	b.n	10002904 <check_sys_clock_khz+0xf0>
1000298a:	fb04 2410 	mls	r4, r4, r0, r2
1000298e:	2c00      	cmp	r4, #0
10002990:	d19d      	bne.n	100028ce <check_sys_clock_khz+0xba>
10002992:	464a      	mov	r2, r9
10002994:	46e6      	mov	lr, ip
10002996:	f8dd b008 	ldr.w	fp, [sp, #8]
1000299a:	f8dd 900c 	ldr.w	r9, [sp, #12]
1000299e:	e7b1      	b.n	10002904 <check_sys_clock_khz+0xf0>
100029a0:	9c01      	ldr	r4, [sp, #4]
100029a2:	e744      	b.n	1000282e <check_sys_clock_khz+0x1a>
100029a4:	002f2650 	.word	0x002f2650
100029a8:	00b71b00 	.word	0x00b71b00
100029ac:	000cf850 	.word	0x000cf850

100029b0 <pll_init>:
100029b0:	b470      	push	{r4, r5, r6}
100029b2:	9d03      	ldr	r5, [sp, #12]
100029b4:	6804      	ldr	r4, [r0, #0]
100029b6:	032d      	lsls	r5, r5, #12
100029b8:	ea45 4503 	orr.w	r5, r5, r3, lsl #16
100029bc:	4b1b      	ldr	r3, [pc, #108]	@ (10002a2c <pll_init+0x7c>)
100029be:	2c00      	cmp	r4, #0
100029c0:	fbb3 f3f1 	udiv	r3, r3, r1
100029c4:	fbb2 f6f3 	udiv	r6, r2, r3
100029c8:	db1f      	blt.n	10002a0a <pll_init+0x5a>
100029ca:	4a19      	ldr	r2, [pc, #100]	@ (10002a30 <pll_init+0x80>)
100029cc:	4b19      	ldr	r3, [pc, #100]	@ (10002a34 <pll_init+0x84>)
100029ce:	4290      	cmp	r0, r2
100029d0:	bf14      	ite	ne
100029d2:	f44f 4280 	movne.w	r2, #16384	@ 0x4000
100029d6:	f44f 4200 	moveq.w	r2, #32768	@ 0x8000
100029da:	4c17      	ldr	r4, [pc, #92]	@ (10002a38 <pll_init+0x88>)
100029dc:	601a      	str	r2, [r3, #0]
100029de:	f503 5380 	add.w	r3, r3, #4096	@ 0x1000
100029e2:	601a      	str	r2, [r3, #0]
100029e4:	68a3      	ldr	r3, [r4, #8]
100029e6:	ea32 0303 	bics.w	r3, r2, r3
100029ea:	d1fb      	bne.n	100029e4 <pll_init+0x34>
100029ec:	2221      	movs	r2, #33	@ 0x21
100029ee:	f500 5340 	add.w	r3, r0, #12288	@ 0x3000
100029f2:	3304      	adds	r3, #4
100029f4:	6001      	str	r1, [r0, #0]
100029f6:	6086      	str	r6, [r0, #8]
100029f8:	601a      	str	r2, [r3, #0]
100029fa:	6802      	ldr	r2, [r0, #0]
100029fc:	2a00      	cmp	r2, #0
100029fe:	dafc      	bge.n	100029fa <pll_init+0x4a>
10002a00:	2208      	movs	r2, #8
10002a02:	60c5      	str	r5, [r0, #12]
10002a04:	601a      	str	r2, [r3, #0]
10002a06:	bc70      	pop	{r4, r5, r6}
10002a08:	4770      	bx	lr
10002a0a:	6803      	ldr	r3, [r0, #0]
10002a0c:	f003 033f 	and.w	r3, r3, #63	@ 0x3f
10002a10:	428b      	cmp	r3, r1
10002a12:	d1da      	bne.n	100029ca <pll_init+0x1a>
10002a14:	6883      	ldr	r3, [r0, #8]
10002a16:	f3c3 030b 	ubfx	r3, r3, #0, #12
10002a1a:	42b3      	cmp	r3, r6
10002a1c:	d1d5      	bne.n	100029ca <pll_init+0x1a>
10002a1e:	68c3      	ldr	r3, [r0, #12]
10002a20:	f403 23ee 	and.w	r3, r3, #487424	@ 0x77000
10002a24:	42ab      	cmp	r3, r5
10002a26:	d1d0      	bne.n	100029ca <pll_init+0x1a>
10002a28:	e7ed      	b.n	10002a06 <pll_init+0x56>
10002a2a:	bf00      	nop
10002a2c:	00b71b00 	.word	0x00b71b00
10002a30:	40058000 	.word	0x40058000
10002a34:	40022000 	.word	0x40022000
10002a38:	40020000 	.word	0x40020000

10002a3c <vreg_set_voltage>:
10002a3c:	4b0a      	ldr	r3, [pc, #40]	@ (10002a68 <vreg_set_voltage+0x2c>)
10002a3e:	490b      	ldr	r1, [pc, #44]	@ (10002a6c <vreg_set_voltage+0x30>)
10002a40:	4a0b      	ldr	r2, [pc, #44]	@ (10002a70 <vreg_set_voltage+0x34>)
10002a42:	6059      	str	r1, [r3, #4]
10002a44:	68d3      	ldr	r3, [r2, #12]
10002a46:	0419      	lsls	r1, r3, #16
10002a48:	d4fc      	bmi.n	10002a44 <vreg_set_voltage+0x8>
10002a4a:	4b0a      	ldr	r3, [pc, #40]	@ (10002a74 <vreg_set_voltage+0x38>)
10002a4c:	68d2      	ldr	r2, [r2, #12]
10002a4e:	ea43 1300 	orr.w	r3, r3, r0, lsl #4
10002a52:	4909      	ldr	r1, [pc, #36]	@ (10002a78 <vreg_set_voltage+0x3c>)
10002a54:	4053      	eors	r3, r2
10002a56:	4809      	ldr	r0, [pc, #36]	@ (10002a7c <vreg_set_voltage+0x40>)
10002a58:	4019      	ands	r1, r3
10002a5a:	4a05      	ldr	r2, [pc, #20]	@ (10002a70 <vreg_set_voltage+0x34>)
10002a5c:	60c1      	str	r1, [r0, #12]
10002a5e:	68d3      	ldr	r3, [r2, #12]
10002a60:	041b      	lsls	r3, r3, #16
10002a62:	d4fc      	bmi.n	10002a5e <vreg_set_voltage+0x22>
10002a64:	4770      	bx	lr
10002a66:	bf00      	nop
10002a68:	40102000 	.word	0x40102000
10002a6c:	5afe2000 	.word	0x5afe2000
10002a70:	40100000 	.word	0x40100000
10002a74:	5afe0000 	.word	0x5afe0000
10002a78:	5afe01f0 	.word	0x5afe01f0
10002a7c:	40101000 	.word	0x40101000

10002a80 <tick_start>:
10002a80:	2301      	movs	r3, #1
10002a82:	eb00 0040 	add.w	r0, r0, r0, lsl #1
10002a86:	0080      	lsls	r0, r0, #2
10002a88:	f100 4080 	add.w	r0, r0, #1073741824	@ 0x40000000
10002a8c:	f500 1084 	add.w	r0, r0, #1081344	@ 0x108000
10002a90:	6041      	str	r1, [r0, #4]
10002a92:	6003      	str	r3, [r0, #0]
10002a94:	4770      	bx	lr
10002a96:	bf00      	nop

10002a98 <rom_func_lookup>:
10002a98:	2300      	movs	r3, #0
10002a9a:	8adb      	ldrh	r3, [r3, #22]
10002a9c:	2200      	movs	r2, #0
10002a9e:	e842 f200 	tt	r2, r2
10002aa2:	0252      	lsls	r2, r2, #9
10002aa4:	d401      	bmi.n	10002aaa <rom_func_lookup+0x12>
10002aa6:	2110      	movs	r1, #16
10002aa8:	4718      	bx	r3
10002aaa:	2104      	movs	r1, #4
10002aac:	4718      	bx	r3
10002aae:	bf00      	nop

10002ab0 <runtime_init_bootrom_locking_enable>:
10002ab0:	4a03      	ldr	r2, [pc, #12]	@ (10002ac0 <runtime_init_bootrom_locking_enable+0x10>)
10002ab2:	f8d2 3828 	ldr.w	r3, [r2, #2088]	@ 0x828
10002ab6:	2b00      	cmp	r3, #0
10002ab8:	d0fb      	beq.n	10002ab2 <runtime_init_bootrom_locking_enable+0x2>
10002aba:	f3bf 8f5f 	dmb	sy
10002abe:	4770      	bx	lr
10002ac0:	400e0000 	.word	0x400e0000

10002ac4 <runtime_init_boot_locks_reset>:
10002ac4:	2100      	movs	r1, #0
10002ac6:	4b04      	ldr	r3, [pc, #16]	@ (10002ad8 <runtime_init_boot_locks_reset+0x14>)
10002ac8:	4a04      	ldr	r2, [pc, #16]	@ (10002adc <runtime_init_boot_locks_reset+0x18>)
10002aca:	f3bf 8f5f 	dmb	sy
10002ace:	f843 1b04 	str.w	r1, [r3], #4
10002ad2:	4293      	cmp	r3, r2
10002ad4:	d1f9      	bne.n	10002aca <runtime_init_boot_locks_reset+0x6>
10002ad6:	4770      	bx	lr
10002ad8:	400e080c 	.word	0x400e080c
10002adc:	400e082c 	.word	0x400e082c

10002ae0 <xosc_init>:
10002ae0:	b410      	push	{r4}
10002ae2:	f44f 603c 	mov.w	r0, #3008	@ 0xbc0
10002ae6:	f44f 642a 	mov.w	r4, #2720	@ 0xaa0
10002aea:	4a06      	ldr	r2, [pc, #24]	@ (10002b04 <xosc_init+0x24>)
10002aec:	4b06      	ldr	r3, [pc, #24]	@ (10002b08 <xosc_init+0x28>)
10002aee:	4907      	ldr	r1, [pc, #28]	@ (10002b0c <xosc_init+0x2c>)
10002af0:	6014      	str	r4, [r2, #0]
10002af2:	60d0      	str	r0, [r2, #12]
10002af4:	6019      	str	r1, [r3, #0]
10002af6:	6853      	ldr	r3, [r2, #4]
10002af8:	2b00      	cmp	r3, #0
10002afa:	dafc      	bge.n	10002af6 <xosc_init+0x16>
10002afc:	f85d 4b04 	ldr.w	r4, [sp], #4
10002b00:	4770      	bx	lr
10002b02:	bf00      	nop
10002b04:	40048000 	.word	0x40048000
10002b08:	4004a000 	.word	0x4004a000
10002b0c:	00fab000 	.word	0x00fab000

10002b10 <first_per_core_initializer>:
10002b10:	4770      	bx	lr
10002b12:	bf00      	nop

10002b14 <hard_assertion_failure>:
10002b14:	b508      	push	{r3, lr}
10002b16:	4801      	ldr	r0, [pc, #4]	@ (10002b1c <hard_assertion_failure+0x8>)
10002b18:	f7fe ff82 	bl	10001a20 <panic>
10002b1c:	10004970 	.word	0x10004970

10002b20 <runtime_run_initializers>:
10002b20:	b538      	push	{r3, r4, r5, lr}
10002b22:	4c05      	ldr	r4, [pc, #20]	@ (10002b38 <runtime_run_initializers+0x18>)
10002b24:	4d05      	ldr	r5, [pc, #20]	@ (10002b3c <runtime_run_initializers+0x1c>)
10002b26:	42ac      	cmp	r4, r5
10002b28:	d204      	bcs.n	10002b34 <runtime_run_initializers+0x14>
10002b2a:	f854 3b04 	ldr.w	r3, [r4], #4
10002b2e:	4798      	blx	r3
10002b30:	42ac      	cmp	r4, r5
10002b32:	d3fa      	bcc.n	10002b2a <runtime_run_initializers+0xa>
10002b34:	bd38      	pop	{r3, r4, r5, pc}
10002b36:	bf00      	nop
10002b38:	100048b8 	.word	0x100048b8
10002b3c:	100048f8 	.word	0x100048f8

10002b40 <runtime_run_per_core_initializers>:
10002b40:	b538      	push	{r3, r4, r5, lr}
10002b42:	4c05      	ldr	r4, [pc, #20]	@ (10002b58 <runtime_run_per_core_initializers+0x18>)
10002b44:	4d05      	ldr	r5, [pc, #20]	@ (10002b5c <runtime_run_per_core_initializers+0x1c>)
10002b46:	42ac      	cmp	r4, r5
10002b48:	d204      	bcs.n	10002b54 <runtime_run_per_core_initializers+0x14>
10002b4a:	f854 3b04 	ldr.w	r3, [r4], #4
10002b4e:	4798      	blx	r3
10002b50:	42ac      	cmp	r4, r5
10002b52:	d3fa      	bcc.n	10002b4a <runtime_run_per_core_initializers+0xa>
10002b54:	bd38      	pop	{r3, r4, r5, pc}
10002b56:	bf00      	nop
10002b58:	100048e4 	.word	0x100048e4
10002b5c:	100048f8 	.word	0x100048f8

10002b60 <runtime_init_early_resets>:
10002b60:	b410      	push	{r4}
10002b62:	4807      	ldr	r0, [pc, #28]	@ (10002b80 <runtime_init_early_resets+0x20>)
10002b64:	4c07      	ldr	r4, [pc, #28]	@ (10002b84 <runtime_init_early_resets+0x24>)
10002b66:	4b08      	ldr	r3, [pc, #32]	@ (10002b88 <runtime_init_early_resets+0x28>)
10002b68:	4a08      	ldr	r2, [pc, #32]	@ (10002b8c <runtime_init_early_resets+0x2c>)
10002b6a:	4909      	ldr	r1, [pc, #36]	@ (10002b90 <runtime_init_early_resets+0x30>)
10002b6c:	6004      	str	r4, [r0, #0]
10002b6e:	601a      	str	r2, [r3, #0]
10002b70:	688b      	ldr	r3, [r1, #8]
10002b72:	ea32 0303 	bics.w	r3, r2, r3
10002b76:	d1fb      	bne.n	10002b70 <runtime_init_early_resets+0x10>
10002b78:	f85d 4b04 	ldr.w	r4, [sp], #4
10002b7c:	4770      	bx	lr
10002b7e:	bf00      	nop
10002b80:	40022000 	.word	0x40022000
10002b84:	efef3b7f 	.word	0xefef3b7f
10002b88:	40023000 	.word	0x40023000
10002b8c:	03f3fff6 	.word	0x03f3fff6
10002b90:	40020000 	.word	0x40020000

10002b94 <runtime_init_usb_power_down>:
10002b94:	4b04      	ldr	r3, [pc, #16]	@ (10002ba8 <runtime_init_usb_power_down+0x14>)
10002b96:	6cdb      	ldr	r3, [r3, #76]	@ 0x4c
10002b98:	f5b3 4f00 	cmp.w	r3, #32768	@ 0x8000
10002b9c:	d103      	bne.n	10002ba6 <runtime_init_usb_power_down+0x12>
10002b9e:	f44f 2280 	mov.w	r2, #262144	@ 0x40000
10002ba2:	4b02      	ldr	r3, [pc, #8]	@ (10002bac <runtime_init_usb_power_down+0x18>)
10002ba4:	64da      	str	r2, [r3, #76]	@ 0x4c
10002ba6:	4770      	bx	lr
10002ba8:	50110000 	.word	0x50110000
10002bac:	50112000 	.word	0x50112000

10002bb0 <runtime_init_per_core_enable_coprocessors>:
10002bb0:	f04f 22e0 	mov.w	r2, #3758153728	@ 0xe000e000
10002bb4:	4b04      	ldr	r3, [pc, #16]	@ (10002bc8 <runtime_init_per_core_enable_coprocessors+0x18>)
10002bb6:	f8d2 1d88 	ldr.w	r1, [r2, #3464]	@ 0xd88
10002bba:	430b      	orrs	r3, r1
10002bbc:	f8c2 3d88 	str.w	r3, [r2, #3464]	@ 0xd88
10002bc0:	ee10 0430 	dcp_rcmp r0
10002bc4:	4770      	bx	lr
10002bc6:	bf00      	nop
10002bc8:	00300303 	.word	0x00300303

10002bcc <runtime_init_post_clock_resets>:
10002bcc:	f06f 4160 	mvn.w	r1, #3758096384	@ 0xe0000000
10002bd0:	4b04      	ldr	r3, [pc, #16]	@ (10002be4 <runtime_init_post_clock_resets+0x18>)
10002bd2:	4a05      	ldr	r2, [pc, #20]	@ (10002be8 <runtime_init_post_clock_resets+0x1c>)
10002bd4:	6019      	str	r1, [r3, #0]
10002bd6:	6893      	ldr	r3, [r2, #8]
10002bd8:	43db      	mvns	r3, r3
10002bda:	f033 4360 	bics.w	r3, r3, #3758096384	@ 0xe0000000
10002bde:	d1fa      	bne.n	10002bd6 <runtime_init_post_clock_resets+0xa>
10002be0:	4770      	bx	lr
10002be2:	bf00      	nop
10002be4:	40023000 	.word	0x40023000
10002be8:	40020000 	.word	0x40020000

10002bec <runtime_init_bootrom_reset>:
10002bec:	b510      	push	{r4, lr}
10002bee:	f245 2053 	movw	r0, #21075	@ 0x5253
10002bf2:	f7ff ff51 	bl	10002a98 <rom_func_lookup>
10002bf6:	e8bd 4010 	ldmia.w	sp!, {r4, lr}
10002bfa:	4603      	mov	r3, r0
10002bfc:	2004      	movs	r0, #4
10002bfe:	4718      	bx	r3

10002c00 <runtime_init_per_core_bootrom_reset>:
10002c00:	b510      	push	{r4, lr}
10002c02:	f245 2053 	movw	r0, #21075	@ 0x5253
10002c06:	f7ff ff47 	bl	10002a98 <rom_func_lookup>
10002c0a:	e8bd 4010 	ldmia.w	sp!, {r4, lr}
10002c0e:	4603      	mov	r3, r0
10002c10:	2001      	movs	r0, #1
10002c12:	4718      	bx	r3

10002c14 <runtime_init_spin_locks_reset>:
10002c14:	f7fe bfc6 	b.w	10001ba4 <spin_locks_reset>

10002c18 <runtime_init_install_ram_vector_table>:
10002c18:	b570      	push	{r4, r5, r6, lr}
10002c1a:	4914      	ldr	r1, [pc, #80]	@ (10002c6c <runtime_init_install_ram_vector_table+0x54>)
10002c1c:	4c14      	ldr	r4, [pc, #80]	@ (10002c70 <runtime_init_install_ram_vector_table+0x58>)
10002c1e:	4d15      	ldr	r5, [pc, #84]	@ (10002c74 <runtime_init_install_ram_vector_table+0x5c>)
10002c20:	1a64      	subs	r4, r4, r1
10002c22:	10a6      	asrs	r6, r4, #2
10002c24:	2e44      	cmp	r6, #68	@ 0x44
10002c26:	4632      	mov	r2, r6
10002c28:	bf28      	it	cs
10002c2a:	2244      	movcs	r2, #68	@ 0x44
10002c2c:	4628      	mov	r0, r5
10002c2e:	0092      	lsls	r2, r2, #2
10002c30:	f001 fd12 	bl	10004658 <memcpy>
10002c34:	f5b4 7f86 	cmp.w	r4, #268	@ 0x10c
10002c38:	d813      	bhi.n	10002c62 <runtime_init_install_ram_vector_table+0x4a>
10002c3a:	4a0f      	ldr	r2, [pc, #60]	@ (10002c78 <runtime_init_install_ram_vector_table+0x60>)
10002c3c:	f1c6 0144 	rsb	r1, r6, #68	@ 0x44
10002c40:	d012      	beq.n	10002c68 <runtime_init_install_ram_vector_table+0x50>
10002c42:	192b      	adds	r3, r5, r4
10002c44:	0848      	lsrs	r0, r1, #1
10002c46:	eb03 00c0 	add.w	r0, r3, r0, lsl #3
10002c4a:	e9c3 2200 	strd	r2, r2, [r3]
10002c4e:	3308      	adds	r3, #8
10002c50:	4283      	cmp	r3, r0
10002c52:	d1fa      	bne.n	10002c4a <runtime_init_install_ram_vector_table+0x32>
10002c54:	07cb      	lsls	r3, r1, #31
10002c56:	d504      	bpl.n	10002c62 <runtime_init_install_ram_vector_table+0x4a>
10002c58:	f021 0301 	bic.w	r3, r1, #1
10002c5c:	4433      	add	r3, r6
10002c5e:	f845 2023 	str.w	r2, [r5, r3, lsl #2]
10002c62:	4b06      	ldr	r3, [pc, #24]	@ (10002c7c <runtime_init_install_ram_vector_table+0x64>)
10002c64:	609d      	str	r5, [r3, #8]
10002c66:	bd70      	pop	{r4, r5, r6, pc}
10002c68:	2343      	movs	r3, #67	@ 0x43
10002c6a:	e7f8      	b.n	10002c5e <runtime_init_install_ram_vector_table+0x46>
10002c6c:	10000000 	.word	0x10000000
10002c70:	10000110 	.word	0x10000110
10002c74:	20000000 	.word	0x20000000
10002c78:	10000111 	.word	0x10000111
10002c7c:	e000ed00 	.word	0xe000ed00

10002c80 <runtime_init_clocks>:
10002c80:	2300      	movs	r3, #0
10002c82:	b570      	push	{r4, r5, r6, lr}
10002c84:	4c2b      	ldr	r4, [pc, #172]	@ (10002d34 <runtime_init_clocks+0xb4>)
10002c86:	b082      	sub	sp, #8
10002c88:	f8c4 3084 	str.w	r3, [r4, #132]	@ 0x84
10002c8c:	f7ff ff28 	bl	10002ae0 <xosc_init>
10002c90:	2201      	movs	r2, #1
10002c92:	4b29      	ldr	r3, [pc, #164]	@ (10002d38 <runtime_init_clocks+0xb8>)
10002c94:	63da      	str	r2, [r3, #60]	@ 0x3c
10002c96:	6c63      	ldr	r3, [r4, #68]	@ 0x44
10002c98:	2b01      	cmp	r3, #1
10002c9a:	d1fc      	bne.n	10002c96 <runtime_init_clocks+0x16>
10002c9c:	2103      	movs	r1, #3
10002c9e:	4a26      	ldr	r2, [pc, #152]	@ (10002d38 <runtime_init_clocks+0xb8>)
10002ca0:	4b24      	ldr	r3, [pc, #144]	@ (10002d34 <runtime_init_clocks+0xb4>)
10002ca2:	6311      	str	r1, [r2, #48]	@ 0x30
10002ca4:	6b9c      	ldr	r4, [r3, #56]	@ 0x38
10002ca6:	2c01      	cmp	r4, #1
10002ca8:	d1fc      	bne.n	10002ca4 <runtime_init_clocks+0x24>
10002caa:	2602      	movs	r6, #2
10002cac:	2505      	movs	r5, #5
10002cae:	4621      	mov	r1, r4
10002cb0:	2305      	movs	r3, #5
10002cb2:	4a22      	ldr	r2, [pc, #136]	@ (10002d3c <runtime_init_clocks+0xbc>)
10002cb4:	4822      	ldr	r0, [pc, #136]	@ (10002d40 <runtime_init_clocks+0xc0>)
10002cb6:	9600      	str	r6, [sp, #0]
10002cb8:	f7ff fe7a 	bl	100029b0 <pll_init>
10002cbc:	4621      	mov	r1, r4
10002cbe:	462b      	mov	r3, r5
10002cc0:	4a20      	ldr	r2, [pc, #128]	@ (10002d44 <runtime_init_clocks+0xc4>)
10002cc2:	4821      	ldr	r0, [pc, #132]	@ (10002d48 <runtime_init_clocks+0xc8>)
10002cc4:	9500      	str	r5, [sp, #0]
10002cc6:	f7ff fe73 	bl	100029b0 <pll_init>
10002cca:	2200      	movs	r2, #0
10002ccc:	2004      	movs	r0, #4
10002cce:	4631      	mov	r1, r6
10002cd0:	4b1e      	ldr	r3, [pc, #120]	@ (10002d4c <runtime_init_clocks+0xcc>)
10002cd2:	f7ff fc6f 	bl	100025b4 <clock_configure_undivided>
10002cd6:	4621      	mov	r1, r4
10002cd8:	4628      	mov	r0, r5
10002cda:	2200      	movs	r2, #0
10002cdc:	4b1c      	ldr	r3, [pc, #112]	@ (10002d50 <runtime_init_clocks+0xd0>)
10002cde:	f7ff fc69 	bl	100025b4 <clock_configure_undivided>
10002ce2:	2200      	movs	r2, #0
10002ce4:	2008      	movs	r0, #8
10002ce6:	4611      	mov	r1, r2
10002ce8:	4b1a      	ldr	r3, [pc, #104]	@ (10002d54 <runtime_init_clocks+0xd4>)
10002cea:	f7ff fc63 	bl	100025b4 <clock_configure_undivided>
10002cee:	2200      	movs	r2, #0
10002cf0:	2009      	movs	r0, #9
10002cf2:	4611      	mov	r1, r2
10002cf4:	4b17      	ldr	r3, [pc, #92]	@ (10002d54 <runtime_init_clocks+0xd4>)
10002cf6:	f7ff fc5d 	bl	100025b4 <clock_configure_undivided>
10002cfa:	2200      	movs	r2, #0
10002cfc:	2006      	movs	r0, #6
10002cfe:	4611      	mov	r1, r2
10002d00:	4b13      	ldr	r3, [pc, #76]	@ (10002d50 <runtime_init_clocks+0xd0>)
10002d02:	f7ff fc57 	bl	100025b4 <clock_configure_undivided>
10002d06:	2200      	movs	r2, #0
10002d08:	4b11      	ldr	r3, [pc, #68]	@ (10002d50 <runtime_init_clocks+0xd0>)
10002d0a:	2007      	movs	r0, #7
10002d0c:	4611      	mov	r1, r2
10002d0e:	f7ff fc51 	bl	100025b4 <clock_configure_undivided>
10002d12:	2004      	movs	r0, #4
10002d14:	f7ff fcb6 	bl	10002684 <clock_get_hz>
10002d18:	2400      	movs	r4, #0
10002d1a:	4b0f      	ldr	r3, [pc, #60]	@ (10002d58 <runtime_init_clocks+0xd8>)
10002d1c:	fba3 3500 	umull	r3, r5, r3, r0
10002d20:	0cad      	lsrs	r5, r5, #18
10002d22:	b2e0      	uxtb	r0, r4
10002d24:	4629      	mov	r1, r5
10002d26:	3401      	adds	r4, #1
10002d28:	f7ff feaa 	bl	10002a80 <tick_start>
10002d2c:	2c06      	cmp	r4, #6
10002d2e:	d1f8      	bne.n	10002d22 <runtime_init_clocks+0xa2>
10002d30:	b002      	add	sp, #8
10002d32:	bd70      	pop	{r4, r5, r6, pc}
10002d34:	40010000 	.word	0x40010000
10002d38:	40013000 	.word	0x40013000
10002d3c:	59682f00 	.word	0x59682f00
10002d40:	40050000 	.word	0x40050000
10002d44:	47868c00 	.word	0x47868c00
10002d48:	40058000 	.word	0x40058000
10002d4c:	00b71b00 	.word	0x00b71b00
10002d50:	08f0d180 	.word	0x08f0d180
10002d54:	02dc6c00 	.word	0x02dc6c00
10002d58:	431bde83 	.word	0x431bde83

10002d5c <__wrap_malloc>:
10002d5c:	b538      	push	{r3, r4, r5, lr}
10002d5e:	4604      	mov	r4, r0
10002d60:	4809      	ldr	r0, [pc, #36]	@ (10002d88 <__wrap_malloc+0x2c>)
10002d62:	f001 fda1 	bl	100048a8 <__mutex_enter_blocking_veneer>
10002d66:	4620      	mov	r0, r4
10002d68:	f001 fc66 	bl	10004638 <malloc>
10002d6c:	4605      	mov	r5, r0
10002d6e:	4806      	ldr	r0, [pc, #24]	@ (10002d88 <__wrap_malloc+0x2c>)
10002d70:	f001 fd96 	bl	100048a0 <__mutex_exit_veneer>
10002d74:	b12d      	cbz	r5, 10002d82 <__wrap_malloc+0x26>
10002d76:	4b05      	ldr	r3, [pc, #20]	@ (10002d8c <__wrap_malloc+0x30>)
10002d78:	442c      	add	r4, r5
10002d7a:	429c      	cmp	r4, r3
10002d7c:	d801      	bhi.n	10002d82 <__wrap_malloc+0x26>
10002d7e:	4628      	mov	r0, r5
10002d80:	bd38      	pop	{r3, r4, r5, pc}
10002d82:	4803      	ldr	r0, [pc, #12]	@ (10002d90 <__wrap_malloc+0x34>)
10002d84:	f7fe fe4c 	bl	10001a20 <panic>
10002d88:	20001018 	.word	0x20001018
10002d8c:	20080000 	.word	0x20080000
10002d90:	1000497c 	.word	0x1000497c

10002d94 <__wrap_calloc>:
10002d94:	b570      	push	{r4, r5, r6, lr}
10002d96:	4604      	mov	r4, r0
10002d98:	460e      	mov	r6, r1
10002d9a:	480b      	ldr	r0, [pc, #44]	@ (10002dc8 <__wrap_calloc+0x34>)
10002d9c:	f001 fd84 	bl	100048a8 <__mutex_enter_blocking_veneer>
10002da0:	4631      	mov	r1, r6
10002da2:	4620      	mov	r0, r4
10002da4:	f001 f806 	bl	10003db4 <calloc>
10002da8:	4605      	mov	r5, r0
10002daa:	4807      	ldr	r0, [pc, #28]	@ (10002dc8 <__wrap_calloc+0x34>)
10002dac:	f001 fd78 	bl	100048a0 <__mutex_exit_veneer>
10002db0:	fb06 f404 	mul.w	r4, r6, r4
10002db4:	b12d      	cbz	r5, 10002dc2 <__wrap_calloc+0x2e>
10002db6:	4b05      	ldr	r3, [pc, #20]	@ (10002dcc <__wrap_calloc+0x38>)
10002db8:	442c      	add	r4, r5
10002dba:	429c      	cmp	r4, r3
10002dbc:	d801      	bhi.n	10002dc2 <__wrap_calloc+0x2e>
10002dbe:	4628      	mov	r0, r5
10002dc0:	bd70      	pop	{r4, r5, r6, pc}
10002dc2:	4803      	ldr	r0, [pc, #12]	@ (10002dd0 <__wrap_calloc+0x3c>)
10002dc4:	f7fe fe2c 	bl	10001a20 <panic>
10002dc8:	20001018 	.word	0x20001018
10002dcc:	20080000 	.word	0x20080000
10002dd0:	1000497c 	.word	0x1000497c

10002dd4 <_out_char>:
10002dd4:	b900      	cbnz	r0, 10002dd8 <_out_char+0x4>
10002dd6:	4770      	bx	lr
10002dd8:	f000 b918 	b.w	1000300c <__wrap_putchar>

10002ddc <weak_raw_vprintf>:
10002ddc:	b510      	push	{r4, lr}
10002dde:	4b09      	ldr	r3, [pc, #36]	@ (10002e04 <weak_raw_vprintf+0x28>)
10002de0:	b084      	sub	sp, #16
10002de2:	681c      	ldr	r4, [r3, #0]
10002de4:	b14c      	cbz	r4, 10002dfa <weak_raw_vprintf+0x1e>
10002de6:	4603      	mov	r3, r0
10002de8:	9100      	str	r1, [sp, #0]
10002dea:	f04f 32ff 	mov.w	r2, #4294967295	@ 0xffffffff
10002dee:	a903      	add	r1, sp, #12
10002df0:	4805      	ldr	r0, [pc, #20]	@ (10002e08 <weak_raw_vprintf+0x2c>)
10002df2:	47a0      	blx	r4
10002df4:	2001      	movs	r0, #1
10002df6:	b004      	add	sp, #16
10002df8:	bd10      	pop	{r4, pc}
10002dfa:	f000 f949 	bl	10003090 <__wrap_puts>
10002dfe:	4620      	mov	r0, r4
10002e00:	b004      	add	sp, #16
10002e02:	bd10      	pop	{r4, pc}
10002e04:	20006f40 	.word	0x20006f40
10002e08:	10002dd5 	.word	0x10002dd5

10002e0c <_exit>:
10002e0c:	be00      	bkpt	0x0000
10002e0e:	e7fd      	b.n	10002e0c <_exit>

10002e10 <_sbrk>:
10002e10:	4a07      	ldr	r2, [pc, #28]	@ (10002e30 <_sbrk+0x20>)
10002e12:	4603      	mov	r3, r0
10002e14:	6810      	ldr	r0, [r2, #0]
10002e16:	b138      	cbz	r0, 10002e28 <_sbrk+0x18>
10002e18:	4906      	ldr	r1, [pc, #24]	@ (10002e34 <_sbrk+0x24>)
10002e1a:	4403      	add	r3, r0
10002e1c:	428b      	cmp	r3, r1
10002e1e:	bf8c      	ite	hi
10002e20:	f04f 30ff 	movhi.w	r0, #4294967295	@ 0xffffffff
10002e24:	6013      	strls	r3, [r2, #0]
10002e26:	4770      	bx	lr
10002e28:	4903      	ldr	r1, [pc, #12]	@ (10002e38 <_sbrk+0x28>)
10002e2a:	4608      	mov	r0, r1
10002e2c:	6011      	str	r1, [r2, #0]
10002e2e:	e7f3      	b.n	10002e18 <_sbrk+0x8>
10002e30:	20006f38 	.word	0x20006f38
10002e34:	20080000 	.word	0x20080000
10002e38:	2000950c 	.word	0x2000950c

10002e3c <exit>:
10002e3c:	b508      	push	{r3, lr}
10002e3e:	f7ff ffe5 	bl	10002e0c <_exit>
10002e42:	bf00      	nop

10002e44 <runtime_init>:
10002e44:	b538      	push	{r3, r4, r5, lr}
10002e46:	4c06      	ldr	r4, [pc, #24]	@ (10002e60 <runtime_init+0x1c>)
10002e48:	4d06      	ldr	r5, [pc, #24]	@ (10002e64 <runtime_init+0x20>)
10002e4a:	f7ff fe69 	bl	10002b20 <runtime_run_initializers>
10002e4e:	42ac      	cmp	r4, r5
10002e50:	d204      	bcs.n	10002e5c <runtime_init+0x18>
10002e52:	f854 3b04 	ldr.w	r3, [r4], #4
10002e56:	4798      	blx	r3
10002e58:	42ac      	cmp	r4, r5
10002e5a:	d3fa      	bcc.n	10002e52 <runtime_init+0xe>
10002e5c:	bd38      	pop	{r3, r4, r5, pc}
10002e5e:	bf00      	nop
10002e60:	100048f8 	.word	0x100048f8
10002e64:	10004900 	.word	0x10004900

10002e68 <stdio_out_chars_no_crlf>:
10002e68:	6803      	ldr	r3, [r0, #0]
10002e6a:	4608      	mov	r0, r1
10002e6c:	4611      	mov	r1, r2
10002e6e:	4718      	bx	r3

10002e70 <stdio_out_chars_crlf>:
10002e70:	7d43      	ldrb	r3, [r0, #21]
10002e72:	e92d 47f0 	stmdb	sp!, {r4, r5, r6, r7, r8, r9, sl, lr}
10002e76:	4681      	mov	r9, r0
10002e78:	460f      	mov	r7, r1
10002e7a:	4616      	mov	r6, r2
10002e7c:	2b00      	cmp	r3, #0
10002e7e:	d043      	beq.n	10002f08 <stdio_out_chars_crlf+0x98>
10002e80:	2a00      	cmp	r2, #0
10002e82:	dd3b      	ble.n	10002efc <stdio_out_chars_crlf+0x8c>
10002e84:	7d03      	ldrb	r3, [r0, #20]
10002e86:	2000      	movs	r0, #0
10002e88:	1e4d      	subs	r5, r1, #1
10002e8a:	4601      	mov	r1, r0
10002e8c:	f815 2f01 	ldrb.w	r2, [r5, #1]!
10002e90:	f8df 8084 	ldr.w	r8, [pc, #132]	@ 10002f18 <stdio_out_chars_crlf+0xa8>
10002e94:	2a0a      	cmp	r2, #10
10002e96:	f101 0401 	add.w	r4, r1, #1
10002e9a:	d00e      	beq.n	10002eba <stdio_out_chars_crlf+0x4a>
10002e9c:	42a6      	cmp	r6, r4
10002e9e:	d01c      	beq.n	10002eda <stdio_out_chars_crlf+0x6a>
10002ea0:	782b      	ldrb	r3, [r5, #0]
10002ea2:	4621      	mov	r1, r4
10002ea4:	f1a3 030d 	sub.w	r3, r3, #13
10002ea8:	fab3 f383 	clz	r3, r3
10002eac:	f815 2f01 	ldrb.w	r2, [r5, #1]!
10002eb0:	095b      	lsrs	r3, r3, #5
10002eb2:	2a0a      	cmp	r2, #10
10002eb4:	f101 0401 	add.w	r4, r1, #1
10002eb8:	d1f0      	bne.n	10002e9c <stdio_out_chars_crlf+0x2c>
10002eba:	2b00      	cmp	r3, #0
10002ebc:	d1ee      	bne.n	10002e9c <stdio_out_chars_crlf+0x2c>
10002ebe:	4281      	cmp	r1, r0
10002ec0:	eba1 0100 	sub.w	r1, r1, r0
10002ec4:	4438      	add	r0, r7
10002ec6:	dc1b      	bgt.n	10002f00 <stdio_out_chars_crlf+0x90>
10002ec8:	2102      	movs	r1, #2
10002eca:	4640      	mov	r0, r8
10002ecc:	f8d9 3000 	ldr.w	r3, [r9]
10002ed0:	4798      	blx	r3
10002ed2:	42a6      	cmp	r6, r4
10002ed4:	d008      	beq.n	10002ee8 <stdio_out_chars_crlf+0x78>
10002ed6:	4620      	mov	r0, r4
10002ed8:	e7e2      	b.n	10002ea0 <stdio_out_chars_crlf+0x30>
10002eda:	4286      	cmp	r6, r0
10002edc:	dd04      	ble.n	10002ee8 <stdio_out_chars_crlf+0x78>
10002ede:	1a31      	subs	r1, r6, r0
10002ee0:	f8d9 3000 	ldr.w	r3, [r9]
10002ee4:	4438      	add	r0, r7
10002ee6:	4798      	blx	r3
10002ee8:	4437      	add	r7, r6
10002eea:	f817 3c01 	ldrb.w	r3, [r7, #-1]
10002eee:	f1a3 030d 	sub.w	r3, r3, #13
10002ef2:	fab3 f383 	clz	r3, r3
10002ef6:	095b      	lsrs	r3, r3, #5
10002ef8:	f889 3014 	strb.w	r3, [r9, #20]
10002efc:	e8bd 87f0 	ldmia.w	sp!, {r4, r5, r6, r7, r8, r9, sl, pc}
10002f00:	f8d9 3000 	ldr.w	r3, [r9]
10002f04:	4798      	blx	r3
10002f06:	e7df      	b.n	10002ec8 <stdio_out_chars_crlf+0x58>
10002f08:	4638      	mov	r0, r7
10002f0a:	f8d9 3000 	ldr.w	r3, [r9]
10002f0e:	4611      	mov	r1, r2
10002f10:	e8bd 47f0 	ldmia.w	sp!, {r4, r5, r6, r7, r8, r9, sl, lr}
10002f14:	4718      	bx	r3
10002f16:	bf00      	nop
10002f18:	10005b08 	.word	0x10005b08

10002f1c <stdio_put_string>:
10002f1c:	e92d 47f0 	stmdb	sp!, {r4, r5, r6, r7, r8, r9, sl, lr}
10002f20:	b082      	sub	sp, #8
10002f22:	460d      	mov	r5, r1
10002f24:	4692      	mov	sl, r2
10002f26:	4699      	mov	r9, r3
10002f28:	4607      	mov	r7, r0
10002f2a:	f7ff fa91 	bl	10002450 <time_us_64>
10002f2e:	f04f 36ff 	mov.w	r6, #4294967295	@ 0xffffffff
10002f32:	f06f 4400 	mvn.w	r4, #2147483648	@ 0x80000000
10002f36:	4a2f      	ldr	r2, [pc, #188]	@ (10002ff4 <stdio_put_string+0xd8>)
10002f38:	1882      	adds	r2, r0, r2
10002f3a:	f141 0300 	adc.w	r3, r1, #0
10002f3e:	4296      	cmp	r6, r2
10002f40:	eb74 0103 	sbcs.w	r1, r4, r3
10002f44:	bf3c      	itt	cc
10002f46:	4632      	movcc	r2, r6
10002f48:	4623      	movcc	r3, r4
10002f4a:	482b      	ldr	r0, [pc, #172]	@ (10002ff8 <stdio_put_string+0xdc>)
10002f4c:	f001 fcb0 	bl	100048b0 <__mutex_try_enter_block_until_veneer>
10002f50:	1c6b      	adds	r3, r5, #1
10002f52:	4680      	mov	r8, r0
10002f54:	d103      	bne.n	10002f5e <stdio_put_string+0x42>
10002f56:	4638      	mov	r0, r7
10002f58:	f001 fc0c 	bl	10004774 <strlen>
10002f5c:	4605      	mov	r5, r0
10002f5e:	4b27      	ldr	r3, [pc, #156]	@ (10002ffc <stdio_put_string+0xe0>)
10002f60:	4e27      	ldr	r6, [pc, #156]	@ (10003000 <stdio_put_string+0xe4>)
10002f62:	681c      	ldr	r4, [r3, #0]
10002f64:	4b27      	ldr	r3, [pc, #156]	@ (10003004 <stdio_put_string+0xe8>)
10002f66:	f1b9 0f00 	cmp.w	r9, #0
10002f6a:	bf18      	it	ne
10002f6c:	461e      	movne	r6, r3
10002f6e:	b1b4      	cbz	r4, 10002f9e <stdio_put_string+0x82>
10002f70:	f1ba 0f00 	cmp.w	sl, #0
10002f74:	d11a      	bne.n	10002fac <stdio_put_string+0x90>
10002f76:	f8df 9090 	ldr.w	r9, [pc, #144]	@ 10003008 <stdio_put_string+0xec>
10002f7a:	e001      	b.n	10002f80 <stdio_put_string+0x64>
10002f7c:	6924      	ldr	r4, [r4, #16]
10002f7e:	b174      	cbz	r4, 10002f9e <stdio_put_string+0x82>
10002f80:	6823      	ldr	r3, [r4, #0]
10002f82:	2b00      	cmp	r3, #0
10002f84:	d0fa      	beq.n	10002f7c <stdio_put_string+0x60>
10002f86:	f8d9 3000 	ldr.w	r3, [r9]
10002f8a:	b10b      	cbz	r3, 10002f90 <stdio_put_string+0x74>
10002f8c:	429c      	cmp	r4, r3
10002f8e:	d1f5      	bne.n	10002f7c <stdio_put_string+0x60>
10002f90:	4620      	mov	r0, r4
10002f92:	462a      	mov	r2, r5
10002f94:	4639      	mov	r1, r7
10002f96:	47b0      	blx	r6
10002f98:	6924      	ldr	r4, [r4, #16]
10002f9a:	2c00      	cmp	r4, #0
10002f9c:	d1f0      	bne.n	10002f80 <stdio_put_string+0x64>
10002f9e:	f1b8 0f00 	cmp.w	r8, #0
10002fa2:	d11f      	bne.n	10002fe4 <stdio_put_string+0xc8>
10002fa4:	4628      	mov	r0, r5
10002fa6:	b002      	add	sp, #8
10002fa8:	e8bd 87f0 	ldmia.w	sp!, {r4, r5, r6, r7, r8, r9, sl, pc}
10002fac:	f04f 0a0a 	mov.w	sl, #10
10002fb0:	f8df 9054 	ldr.w	r9, [pc, #84]	@ 10003008 <stdio_put_string+0xec>
10002fb4:	e002      	b.n	10002fbc <stdio_put_string+0xa0>
10002fb6:	6924      	ldr	r4, [r4, #16]
10002fb8:	2c00      	cmp	r4, #0
10002fba:	d0f0      	beq.n	10002f9e <stdio_put_string+0x82>
10002fbc:	6823      	ldr	r3, [r4, #0]
10002fbe:	2b00      	cmp	r3, #0
10002fc0:	d0f9      	beq.n	10002fb6 <stdio_put_string+0x9a>
10002fc2:	f8d9 3000 	ldr.w	r3, [r9]
10002fc6:	b10b      	cbz	r3, 10002fcc <stdio_put_string+0xb0>
10002fc8:	42a3      	cmp	r3, r4
10002fca:	d1f4      	bne.n	10002fb6 <stdio_put_string+0x9a>
10002fcc:	462a      	mov	r2, r5
10002fce:	4639      	mov	r1, r7
10002fd0:	4620      	mov	r0, r4
10002fd2:	47b0      	blx	r6
10002fd4:	2201      	movs	r2, #1
10002fd6:	4620      	mov	r0, r4
10002fd8:	f10d 0107 	add.w	r1, sp, #7
10002fdc:	f88d a007 	strb.w	sl, [sp, #7]
10002fe0:	47b0      	blx	r6
10002fe2:	e7e8      	b.n	10002fb6 <stdio_put_string+0x9a>
10002fe4:	4804      	ldr	r0, [pc, #16]	@ (10002ff8 <stdio_put_string+0xdc>)
10002fe6:	f001 fc5b 	bl	100048a0 <__mutex_exit_veneer>
10002fea:	4628      	mov	r0, r5
10002fec:	b002      	add	sp, #8
10002fee:	e8bd 87f0 	ldmia.w	sp!, {r4, r5, r6, r7, r8, r9, sl, pc}
10002ff2:	bf00      	nop
10002ff4:	000f4240 	.word	0x000f4240
10002ff8:	20001020 	.word	0x20001020
10002ffc:	20005728 	.word	0x20005728
10003000:	10002e69 	.word	0x10002e69
10003004:	10002e71 	.word	0x10002e71
10003008:	20005f34 	.word	0x20005f34

1000300c <__wrap_putchar>:
1000300c:	b5f0      	push	{r4, r5, r6, r7, lr}
1000300e:	b083      	sub	sp, #12
10003010:	4606      	mov	r6, r0
10003012:	f88d 0007 	strb.w	r0, [sp, #7]
10003016:	f7ff fa1b 	bl	10002450 <time_us_64>
1000301a:	f04f 35ff 	mov.w	r5, #4294967295	@ 0xffffffff
1000301e:	f06f 4400 	mvn.w	r4, #2147483648	@ 0x80000000
10003022:	4a17      	ldr	r2, [pc, #92]	@ (10003080 <__wrap_putchar+0x74>)
10003024:	1882      	adds	r2, r0, r2
10003026:	f141 0300 	adc.w	r3, r1, #0
1000302a:	4295      	cmp	r5, r2
1000302c:	eb74 0103 	sbcs.w	r1, r4, r3
10003030:	bf3c      	itt	cc
10003032:	4623      	movcc	r3, r4
10003034:	462a      	movcc	r2, r5
10003036:	4813      	ldr	r0, [pc, #76]	@ (10003084 <__wrap_putchar+0x78>)
10003038:	f001 fc3a 	bl	100048b0 <__mutex_try_enter_block_until_veneer>
1000303c:	4b12      	ldr	r3, [pc, #72]	@ (10003088 <__wrap_putchar+0x7c>)
1000303e:	4607      	mov	r7, r0
10003040:	681c      	ldr	r4, [r3, #0]
10003042:	b19c      	cbz	r4, 1000306c <__wrap_putchar+0x60>
10003044:	4d11      	ldr	r5, [pc, #68]	@ (1000308c <__wrap_putchar+0x80>)
10003046:	e001      	b.n	1000304c <__wrap_putchar+0x40>
10003048:	6924      	ldr	r4, [r4, #16]
1000304a:	b17c      	cbz	r4, 1000306c <__wrap_putchar+0x60>
1000304c:	6823      	ldr	r3, [r4, #0]
1000304e:	2b00      	cmp	r3, #0
10003050:	d0fa      	beq.n	10003048 <__wrap_putchar+0x3c>
10003052:	682b      	ldr	r3, [r5, #0]
10003054:	b10b      	cbz	r3, 1000305a <__wrap_putchar+0x4e>
10003056:	429c      	cmp	r4, r3
10003058:	d1f6      	bne.n	10003048 <__wrap_putchar+0x3c>
1000305a:	4620      	mov	r0, r4
1000305c:	2201      	movs	r2, #1
1000305e:	f10d 0107 	add.w	r1, sp, #7
10003062:	f7ff ff05 	bl	10002e70 <stdio_out_chars_crlf>
10003066:	6924      	ldr	r4, [r4, #16]
10003068:	2c00      	cmp	r4, #0
1000306a:	d1ef      	bne.n	1000304c <__wrap_putchar+0x40>
1000306c:	b917      	cbnz	r7, 10003074 <__wrap_putchar+0x68>
1000306e:	4630      	mov	r0, r6
10003070:	b003      	add	sp, #12
10003072:	bdf0      	pop	{r4, r5, r6, r7, pc}
10003074:	4803      	ldr	r0, [pc, #12]	@ (10003084 <__wrap_putchar+0x78>)
10003076:	f001 fc13 	bl	100048a0 <__mutex_exit_veneer>
1000307a:	4630      	mov	r0, r6
1000307c:	b003      	add	sp, #12
1000307e:	bdf0      	pop	{r4, r5, r6, r7, pc}
10003080:	000f4240 	.word	0x000f4240
10003084:	20001020 	.word	0x20001020
10003088:	20005728 	.word	0x20005728
1000308c:	20005f34 	.word	0x20005f34

10003090 <__wrap_puts>:
10003090:	b538      	push	{r3, r4, r5, lr}
10003092:	4604      	mov	r4, r0
10003094:	f001 fb6e 	bl	10004774 <strlen>
10003098:	2301      	movs	r3, #1
1000309a:	4605      	mov	r5, r0
1000309c:	461a      	mov	r2, r3
1000309e:	4620      	mov	r0, r4
100030a0:	4629      	mov	r1, r5
100030a2:	f7ff ff3b 	bl	10002f1c <stdio_put_string>
100030a6:	4b08      	ldr	r3, [pc, #32]	@ (100030c8 <__wrap_puts+0x38>)
100030a8:	681c      	ldr	r4, [r3, #0]
100030aa:	b12c      	cbz	r4, 100030b8 <__wrap_puts+0x28>
100030ac:	6863      	ldr	r3, [r4, #4]
100030ae:	b12b      	cbz	r3, 100030bc <__wrap_puts+0x2c>
100030b0:	4798      	blx	r3
100030b2:	6924      	ldr	r4, [r4, #16]
100030b4:	2c00      	cmp	r4, #0
100030b6:	d1f9      	bne.n	100030ac <__wrap_puts+0x1c>
100030b8:	4628      	mov	r0, r5
100030ba:	bd38      	pop	{r3, r4, r5, pc}
100030bc:	6924      	ldr	r4, [r4, #16]
100030be:	2c00      	cmp	r4, #0
100030c0:	d1f4      	bne.n	100030ac <__wrap_puts+0x1c>
100030c2:	4628      	mov	r0, r5
100030c4:	bd38      	pop	{r3, r4, r5, pc}
100030c6:	bf00      	nop
100030c8:	20005728 	.word	0x20005728

100030cc <core1_trampoline>:
100030cc:	bd03      	pop	{r0, r1, pc}
100030ce:	bf00      	nop

100030d0 <core1_wrapper>:
100030d0:	b510      	push	{r4, lr}
100030d2:	4604      	mov	r4, r0
100030d4:	f7ff fd34 	bl	10002b40 <runtime_run_per_core_initializers>
100030d8:	4623      	mov	r3, r4
100030da:	e8bd 4010 	ldmia.w	sp!, {r4, lr}
100030de:	4718      	bx	r3

100030e0 <multicore_launch_core1_raw>:
100030e0:	b5f0      	push	{r4, r5, r6, r7, lr}
100030e2:	4605      	mov	r5, r0
100030e4:	b087      	sub	sp, #28
100030e6:	2019      	movs	r0, #25
100030e8:	4617      	mov	r7, r2
100030ea:	460e      	mov	r6, r1
100030ec:	f7fe fd9c 	bl	10001c28 <irq_is_enabled>
100030f0:	2100      	movs	r1, #0
100030f2:	4604      	mov	r4, r0
100030f4:	2019      	movs	r0, #25
100030f6:	f7fe fd81 	bl	10001bfc <irq_set_enabled>
100030fa:	2100      	movs	r1, #0
100030fc:	e9cd 6504 	strd	r6, r5, [sp, #16]
10003100:	9703      	str	r7, [sp, #12]
10003102:	2600      	movs	r6, #0
10003104:	2700      	movs	r7, #0
10003106:	2201      	movs	r2, #1
10003108:	f04f 4350 	mov.w	r3, #3489660928	@ 0xd0000000
1000310c:	468c      	mov	ip, r1
1000310e:	e9cd 6700 	strd	r6, r7, [sp]
10003112:	9202      	str	r2, [sp, #8]
10003114:	b1b9      	cbz	r1, 10003146 <multicore_launch_core1_raw+0x66>
10003116:	6d1a      	ldr	r2, [r3, #80]	@ 0x50
10003118:	0795      	lsls	r5, r2, #30
1000311a:	d5fc      	bpl.n	10003116 <multicore_launch_core1_raw+0x36>
1000311c:	6559      	str	r1, [r3, #84]	@ 0x54
1000311e:	bf40      	sev
10003120:	6d1a      	ldr	r2, [r3, #80]	@ 0x50
10003122:	07d0      	lsls	r0, r2, #31
10003124:	d403      	bmi.n	1000312e <multicore_launch_core1_raw+0x4e>
10003126:	bf20      	wfe
10003128:	6d1a      	ldr	r2, [r3, #80]	@ 0x50
1000312a:	07d2      	lsls	r2, r2, #31
1000312c:	d5fb      	bpl.n	10003126 <multicore_launch_core1_raw+0x46>
1000312e:	6d9a      	ldr	r2, [r3, #88]	@ 0x58
10003130:	428a      	cmp	r2, r1
10003132:	d00d      	beq.n	10003150 <multicore_launch_core1_raw+0x70>
10003134:	f04f 0c00 	mov.w	ip, #0
10003138:	aa06      	add	r2, sp, #24
1000313a:	eb02 028c 	add.w	r2, r2, ip, lsl #2
1000313e:	f852 1c18 	ldr.w	r1, [r2, #-24]
10003142:	e7e7      	b.n	10003114 <multicore_launch_core1_raw+0x34>
10003144:	6d9a      	ldr	r2, [r3, #88]	@ 0x58
10003146:	6d1a      	ldr	r2, [r3, #80]	@ 0x50
10003148:	07d6      	lsls	r6, r2, #31
1000314a:	d4fb      	bmi.n	10003144 <multicore_launch_core1_raw+0x64>
1000314c:	bf40      	sev
1000314e:	e7e2      	b.n	10003116 <multicore_launch_core1_raw+0x36>
10003150:	f10c 0c01 	add.w	ip, ip, #1
10003154:	f1bc 0f06 	cmp.w	ip, #6
10003158:	d1ee      	bne.n	10003138 <multicore_launch_core1_raw+0x58>
1000315a:	4621      	mov	r1, r4
1000315c:	2019      	movs	r0, #25
1000315e:	b007      	add	sp, #28
10003160:	e8bd 40f0 	ldmia.w	sp!, {r4, r5, r6, r7, lr}
10003164:	f7fe bd4a 	b.w	10001bfc <irq_set_enabled>

10003168 <multicore_launch_core1>:
10003168:	4b0b      	ldr	r3, [pc, #44]	@ (10003198 <multicore_launch_core1+0x30>)
1000316a:	4a0c      	ldr	r2, [pc, #48]	@ (1000319c <multicore_launch_core1+0x34>)
1000316c:	4293      	cmp	r3, r2
1000316e:	d30c      	bcc.n	1000318a <multicore_launch_core1+0x22>
10003170:	469c      	mov	ip, r3
10003172:	f503 71fa 	add.w	r1, r3, #500	@ 0x1f4
10003176:	4a0a      	ldr	r2, [pc, #40]	@ (100031a0 <multicore_launch_core1+0x38>)
10003178:	6892      	ldr	r2, [r2, #8]
1000317a:	f8cc 01f4 	str.w	r0, [ip, #500]	@ 0x1f4
1000317e:	4809      	ldr	r0, [pc, #36]	@ (100031a4 <multicore_launch_core1+0x3c>)
10003180:	e9cc 307e 	strd	r3, r0, [ip, #504]	@ 0x1f8
10003184:	4808      	ldr	r0, [pc, #32]	@ (100031a8 <multicore_launch_core1+0x40>)
10003186:	f7ff bfab 	b.w	100030e0 <multicore_launch_core1_raw>
1000318a:	f04f 33ff 	mov.w	r3, #4294967295	@ 0xffffffff
1000318e:	f240 11f3 	movw	r1, #499	@ 0x1f3
10003192:	469c      	mov	ip, r3
10003194:	e7ef      	b.n	10003176 <multicore_launch_core1+0xe>
10003196:	bf00      	nop
10003198:	20080e00 	.word	0x20080e00
1000319c:	2008092c 	.word	0x2008092c
100031a0:	e000ed00 	.word	0xe000ed00
100031a4:	100030d1 	.word	0x100030d1
100031a8:	100030cd 	.word	0x100030cd

100031ac <dvi_init>:
100031ac:	e92d 4ff8 	stmdb	sp!, {r3, r4, r5, r6, r7, r8, r9, sl, fp, lr}
100031b0:	4604      	mov	r4, r0
100031b2:	3034      	adds	r0, #52	@ 0x34
100031b4:	f104 0b3c 	add.w	fp, r4, #60	@ 0x3c
100031b8:	4689      	mov	r9, r1
100031ba:	4690      	mov	r8, r2
100031bc:	f000 fa9e 	bl	100036fc <dvi_timing_state_init>
100031c0:	4658      	mov	r0, fp
100031c2:	f000 f97b 	bl	100034bc <dvi_serialiser_init>
100031c6:	4625      	mov	r5, r4
100031c8:	f104 0a30 	add.w	sl, r4, #48	@ 0x30
100031cc:	2001      	movs	r0, #1
100031ce:	f000 fbef 	bl	100039b0 <dma_claim_unused_channel>
100031d2:	4603      	mov	r3, r0
100031d4:	2001      	movs	r0, #1
100031d6:	606b      	str	r3, [r5, #4]
100031d8:	f000 fbea 	bl	100039b0 <dma_claim_unused_channel>
100031dc:	6be3      	ldr	r3, [r4, #60]	@ 0x3c
100031de:	60a8      	str	r0, [r5, #8]
100031e0:	f85b 7f04 	ldr.w	r7, [fp, #4]!
100031e4:	f103 462f 	add.w	r6, r3, #2936012800	@ 0xaf000000
100031e8:	f506 0660 	add.w	r6, r6, #14680064	@ 0xe00000
100031ec:	1d3a      	adds	r2, r7, #4
100031ee:	0d36      	lsrs	r6, r6, #20
100031f0:	eb03 0382 	add.w	r3, r3, r2, lsl #2
100031f4:	eb07 07c6 	add.w	r7, r7, r6, lsl #3
100031f8:	60eb      	str	r3, [r5, #12]
100031fa:	f845 7f10 	str.w	r7, [r5, #16]!
100031fe:	4555      	cmp	r5, sl
10003200:	d1e4      	bne.n	100031cc <dvi_init+0x20>
10003202:	f04f 0a00 	mov.w	sl, #0
10003206:	464b      	mov	r3, r9
10003208:	2208      	movs	r2, #8
1000320a:	2104      	movs	r1, #4
1000320c:	f504 701d 	add.w	r0, r4, #628	@ 0x274
10003210:	e9c4 aa9a 	strd	sl, sl, [r4, #616]	@ 0x268
10003214:	f8c4 a270 	str.w	sl, [r4, #624]	@ 0x270
10003218:	f7ff f936 	bl	10002488 <queue_init_with_spinlock>
1000321c:	464b      	mov	r3, r9
1000321e:	2208      	movs	r2, #8
10003220:	2104      	movs	r1, #4
10003222:	f504 7021 	add.w	r0, r4, #644	@ 0x284
10003226:	f7ff f92f 	bl	10002488 <queue_init_with_spinlock>
1000322a:	4643      	mov	r3, r8
1000322c:	2208      	movs	r2, #8
1000322e:	2104      	movs	r1, #4
10003230:	f504 7025 	add.w	r0, r4, #660	@ 0x294
10003234:	f7ff f928 	bl	10002488 <queue_init_with_spinlock>
10003238:	4643      	mov	r3, r8
1000323a:	2208      	movs	r2, #8
1000323c:	2104      	movs	r1, #4
1000323e:	f504 7029 	add.w	r0, r4, #676	@ 0x2a4
10003242:	f7ff f921 	bl	10002488 <queue_init_with_spinlock>
10003246:	4623      	mov	r3, r4
10003248:	1d26      	adds	r6, r4, #4
1000324a:	4631      	mov	r1, r6
1000324c:	f853 0b68 	ldr.w	r0, [r3], #104
10003250:	2201      	movs	r2, #1
10003252:	f000 fa57 	bl	10003704 <dvi_setup_scanline_for_vblank>
10003256:	4623      	mov	r3, r4
10003258:	4631      	mov	r1, r6
1000325a:	f853 0be8 	ldr.w	r0, [r3], #232
1000325e:	4652      	mov	r2, sl
10003260:	f000 fa50 	bl	10003704 <dvi_setup_scanline_for_vblank>
10003264:	4631      	mov	r1, r6
10003266:	f04f 5200 	mov.w	r2, #536870912	@ 0x20000000
1000326a:	6820      	ldr	r0, [r4, #0]
1000326c:	f504 73b4 	add.w	r3, r4, #360	@ 0x168
10003270:	f000 fad0 	bl	10003814 <dvi_setup_scanline_for_active>
10003274:	4631      	mov	r1, r6
10003276:	4652      	mov	r2, sl
10003278:	6820      	ldr	r0, [r4, #0]
1000327a:	f504 73f4 	add.w	r3, r4, #488	@ 0x1e8
1000327e:	f000 fac9 	bl	10003814 <dvi_setup_scanline_for_active>
10003282:	2603      	movs	r6, #3
10003284:	4657      	mov	r7, sl
10003286:	e014      	b.n	100032b2 <dvi_init+0x106>
10003288:	428b      	cmp	r3, r1
1000328a:	d03b      	beq.n	10003304 <dvi_init+0x158>
1000328c:	1c53      	adds	r3, r2, #1
1000328e:	b29b      	uxth	r3, r3
10003290:	f8d4 5288 	ldr.w	r5, [r4, #648]	@ 0x288
10003294:	428b      	cmp	r3, r1
10003296:	f845 0022 	str.w	r0, [r5, r2, lsl #2]
1000329a:	bf94      	ite	ls
1000329c:	f8a4 328c 	strhls.w	r3, [r4, #652]	@ 0x28c
100032a0:	f8a4 a28c 	strhhi.w	sl, [r4, #652]	@ 0x28c
100032a4:	e8ce 7f8f 	stlb	r7, [lr]
100032a8:	f38c 8810 	msr	PRIMASK, ip
100032ac:	bf40      	sev
100032ae:	3e01      	subs	r6, #1
100032b0:	d02e      	beq.n	10003310 <dvi_init+0x164>
100032b2:	6823      	ldr	r3, [r4, #0]
100032b4:	6918      	ldr	r0, [r3, #16]
100032b6:	eb00 0040 	add.w	r0, r0, r0, lsl #1
100032ba:	0840      	lsrs	r0, r0, #1
100032bc:	0080      	lsls	r0, r0, #2
100032be:	f7ff fd4d 	bl	10002d5c <__wrap_malloc>
100032c2:	2800      	cmp	r0, #0
100032c4:	d026      	beq.n	10003314 <dvi_init+0x168>
100032c6:	f8d4 3284 	ldr.w	r3, [r4, #644]	@ 0x284
100032ca:	f3ef 8c10 	mrs	ip, PRIMASK
100032ce:	b672      	cpsid	i
100032d0:	e8d3 1fcf 	ldaexb	r1, [r3]
100032d4:	2201      	movs	r2, #1
100032d6:	2900      	cmp	r1, #0
100032d8:	d1fa      	bne.n	100032d0 <dvi_init+0x124>
100032da:	e8c3 2f41 	strexb	r1, r2, [r3]
100032de:	2900      	cmp	r1, #0
100032e0:	d1f6      	bne.n	100032d0 <dvi_init+0x124>
100032e2:	f3bf 8f5f 	dmb	sy
100032e6:	f8b4 228c 	ldrh.w	r2, [r4, #652]	@ 0x28c
100032ea:	f8b4 328e 	ldrh.w	r3, [r4, #654]	@ 0x28e
100032ee:	f8b4 1292 	ldrh.w	r1, [r4, #658]	@ 0x292
100032f2:	1ad3      	subs	r3, r2, r3
100032f4:	f8d4 e284 	ldr.w	lr, [r4, #644]	@ 0x284
100032f8:	d5c6      	bpl.n	10003288 <dvi_init+0xdc>
100032fa:	f101 0801 	add.w	r8, r1, #1
100032fe:	4443      	add	r3, r8
10003300:	4299      	cmp	r1, r3
10003302:	d1c3      	bne.n	1000328c <dvi_init+0xe0>
10003304:	e8ce 7f8f 	stlb	r7, [lr]
10003308:	f38c 8810 	msr	PRIMASK, ip
1000330c:	bf20      	wfe
1000330e:	e7da      	b.n	100032c6 <dvi_init+0x11a>
10003310:	e8bd 8ff8 	ldmia.w	sp!, {r3, r4, r5, r6, r7, r8, r9, sl, fp, pc}
10003314:	4801      	ldr	r0, [pc, #4]	@ (1000331c <dvi_init+0x170>)
10003316:	f7fe fb83 	bl	10001a20 <panic>
1000331a:	bf00      	nop
1000331c:	100049fc 	.word	0x100049fc

10003320 <dvi_register_irqs_this_core>:
10003320:	f04f 0c01 	mov.w	ip, #1
10003324:	4602      	mov	r2, r0
10003326:	b510      	push	{r4, lr}
10003328:	460c      	mov	r4, r1
1000332a:	f04f 4ea0 	mov.w	lr, #1342177280	@ 0x50000000
1000332e:	6881      	ldr	r1, [r0, #8]
10003330:	6843      	ldr	r3, [r0, #4]
10003332:	6940      	ldr	r0, [r0, #20]
10003334:	fa0c f101 	lsl.w	r1, ip, r1
10003338:	fa0c f303 	lsl.w	r3, ip, r3
1000333c:	fa0c f000 	lsl.w	r0, ip, r0
10003340:	430b      	orrs	r3, r1
10003342:	4303      	orrs	r3, r0
10003344:	6990      	ldr	r0, [r2, #24]
10003346:	2c0a      	cmp	r4, #10
10003348:	fa0c f000 	lsl.w	r0, ip, r0
1000334c:	ea43 0300 	orr.w	r3, r3, r0
10003350:	6a50      	ldr	r0, [r2, #36]	@ 0x24
10003352:	fa0c f000 	lsl.w	r0, ip, r0
10003356:	ea43 0300 	orr.w	r3, r3, r0
1000335a:	6a90      	ldr	r0, [r2, #40]	@ 0x28
1000335c:	f8ce 140c 	str.w	r1, [lr, #1036]	@ 0x40c
10003360:	fa0c fc00 	lsl.w	ip, ip, r0
10003364:	ea43 030c 	orr.w	r3, r3, ip
10003368:	d012      	beq.n	10003390 <dvi_register_irqs_this_core+0x70>
1000336a:	f8de 0414 	ldr.w	r0, [lr, #1044]	@ 0x414
1000336e:	4041      	eors	r1, r0
10003370:	4811      	ldr	r0, [pc, #68]	@ (100033b8 <dvi_register_irqs_this_core+0x98>)
10003372:	4019      	ands	r1, r3
10003374:	4b11      	ldr	r3, [pc, #68]	@ (100033bc <dvi_register_irqs_this_core+0x9c>)
10003376:	f8c0 1414 	str.w	r1, [r0, #1044]	@ 0x414
1000337a:	200b      	movs	r0, #11
1000337c:	4910      	ldr	r1, [pc, #64]	@ (100033c0 <dvi_register_irqs_this_core+0xa0>)
1000337e:	605a      	str	r2, [r3, #4]
10003380:	f7fe fc62 	bl	10001c48 <irq_set_exclusive_handler>
10003384:	4620      	mov	r0, r4
10003386:	e8bd 4010 	ldmia.w	sp!, {r4, lr}
1000338a:	2101      	movs	r1, #1
1000338c:	f7fe bc36 	b.w	10001bfc <irq_set_enabled>
10003390:	f8de 0404 	ldr.w	r0, [lr, #1028]	@ 0x404
10003394:	4041      	eors	r1, r0
10003396:	4808      	ldr	r0, [pc, #32]	@ (100033b8 <dvi_register_irqs_this_core+0x98>)
10003398:	400b      	ands	r3, r1
1000339a:	f8c0 3404 	str.w	r3, [r0, #1028]	@ 0x404
1000339e:	4b07      	ldr	r3, [pc, #28]	@ (100033bc <dvi_register_irqs_this_core+0x9c>)
100033a0:	4620      	mov	r0, r4
100033a2:	4908      	ldr	r1, [pc, #32]	@ (100033c4 <dvi_register_irqs_this_core+0xa4>)
100033a4:	601a      	str	r2, [r3, #0]
100033a6:	f7fe fc4f 	bl	10001c48 <irq_set_exclusive_handler>
100033aa:	4620      	mov	r0, r4
100033ac:	e8bd 4010 	ldmia.w	sp!, {r4, lr}
100033b0:	2101      	movs	r1, #1
100033b2:	f7fe bc23 	b.w	10001bfc <irq_set_enabled>
100033b6:	bf00      	nop
100033b8:	50001000 	.word	0x50001000
100033bc:	20005720 	.word	0x20005720
100033c0:	20000949 	.word	0x20000949
100033c4:	20000965 	.word	0x20000965

100033c8 <dvi_start>:
100033c8:	e92d 4ff0 	stmdb	sp!, {r4, r5, r6, r7, r8, r9, sl, fp, lr}
100033cc:	f04f 0e01 	mov.w	lr, #1
100033d0:	4602      	mov	r2, r0
100033d2:	2604      	movs	r6, #4
100033d4:	6885      	ldr	r5, [r0, #8]
100033d6:	b085      	sub	sp, #20
100033d8:	01ad      	lsls	r5, r5, #6
100033da:	f105 45a0 	add.w	r5, r5, #1342177280	@ 0x50000000
100033de:	9502      	str	r5, [sp, #8]
100033e0:	e9d0 3505 	ldrd	r3, r5, [r0, #20]
100033e4:	ea4f 1c85 	mov.w	ip, r5, lsl #6
100033e8:	f10c 45a0 	add.w	r5, ip, #1342177280	@ 0x50000000
100033ec:	9503      	str	r5, [sp, #12]
100033ee:	6a85      	ldr	r5, [r0, #40]	@ 0x28
100033f0:	6847      	ldr	r7, [r0, #4]
100033f2:	6a41      	ldr	r1, [r0, #36]	@ 0x24
100033f4:	ea4f 1c85 	mov.w	ip, r5, lsl #6
100033f8:	4c2e      	ldr	r4, [pc, #184]	@ (100034b4 <dvi_start+0xec>)
100033fa:	f10c 4ca0 	add.w	ip, ip, #1342177280	@ 0x50000000
100033fe:	f8df 80b8 	ldr.w	r8, [pc, #184]	@ 100034b8 <dvi_start+0xf0>
10003402:	f8cd c004 	str.w	ip, [sp, #4]
10003406:	fa0e fa07 	lsl.w	sl, lr, r7
1000340a:	fa0e fc01 	lsl.w	ip, lr, r1
1000340e:	9d02      	ldr	r5, [sp, #8]
10003410:	ea4a 0a0c 	orr.w	sl, sl, ip
10003414:	ea04 3947 	and.w	r9, r4, r7, lsl #13
10003418:	ea4f 1b83 	mov.w	fp, r3, lsl #6
1000341c:	ea4f 1c87 	mov.w	ip, r7, lsl #6
10003420:	ea04 3743 	and.w	r7, r4, r3, lsl #13
10003424:	ea04 3441 	and.w	r4, r4, r1, lsl #13
10003428:	fa0e f303 	lsl.w	r3, lr, r3
1000342c:	f10c 4ca0 	add.w	ip, ip, #1342177280	@ 0x50000000
10003430:	ea47 0708 	orr.w	r7, r7, r8
10003434:	ea49 0908 	orr.w	r9, r9, r8
10003438:	ea44 0808 	orr.w	r8, r4, r8
1000343c:	ea4a 0403 	orr.w	r4, sl, r3
10003440:	f10b 4aa0 	add.w	sl, fp, #1342177280	@ 0x50000000
10003444:	f102 0be8 	add.w	fp, r2, #232	@ 0xe8
10003448:	f850 3f3c 	ldr.w	r3, [r0, #60]!
1000344c:	f8cc b000 	str.w	fp, [ip]
10003450:	f8cc 5004 	str.w	r5, [ip, #4]
10003454:	9d03      	ldr	r5, [sp, #12]
10003456:	f8cc 6008 	str.w	r6, [ip, #8]
1000345a:	f8cc 9010 	str.w	r9, [ip, #16]
1000345e:	f502 7c94 	add.w	ip, r2, #296	@ 0x128
10003462:	f8ca c000 	str.w	ip, [sl]
10003466:	0189      	lsls	r1, r1, #6
10003468:	f8ca 5004 	str.w	r5, [sl, #4]
1000346c:	9d01      	ldr	r5, [sp, #4]
1000346e:	f8ca 6008 	str.w	r6, [sl, #8]
10003472:	f101 41a0 	add.w	r1, r1, #1342177280	@ 0x50000000
10003476:	f8ca 7010 	str.w	r7, [sl, #16]
1000347a:	f502 77a4 	add.w	r7, r2, #328	@ 0x148
1000347e:	600f      	str	r7, [r1, #0]
10003480:	604d      	str	r5, [r1, #4]
10003482:	608e      	str	r6, [r1, #8]
10003484:	f8c1 8010 	str.w	r8, [r1, #16]
10003488:	f04f 41a0 	mov.w	r1, #1342177280	@ 0x50000000
1000348c:	4605      	mov	r5, r0
1000348e:	f8c1 4450 	str.w	r4, [r1, #1104]	@ 0x450
10003492:	3248      	adds	r2, #72	@ 0x48
10003494:	f855 4f04 	ldr.w	r4, [r5, #4]!
10003498:	3410      	adds	r4, #16
1000349a:	fa0e f404 	lsl.w	r4, lr, r4
1000349e:	6859      	ldr	r1, [r3, #4]
100034a0:	4221      	tst	r1, r4
100034a2:	d0fc      	beq.n	1000349e <dvi_start+0xd6>
100034a4:	4295      	cmp	r5, r2
100034a6:	d1f5      	bne.n	10003494 <dvi_start+0xcc>
100034a8:	2101      	movs	r1, #1
100034aa:	b005      	add	sp, #20
100034ac:	e8bd 4ff0 	ldmia.w	sp!, {r4, r5, r6, r7, r8, r9, sl, fp, lr}
100034b0:	f000 b8de 	b.w	10003670 <dvi_serialiser_enable>
100034b4:	fc7ffffd 	.word	0xfc7ffffd
100034b8:	007e1459 	.word	0x007e1459

100034bc <dvi_serialiser_init>:
100034bc:	e92d 4ff0 	stmdb	sp!, {r4, r5, r6, r7, r8, r9, sl, fp, lr}
100034c0:	4968      	ldr	r1, [pc, #416]	@ (10003664 <dvi_serialiser_init+0x1a8>)
100034c2:	4682      	mov	sl, r0
100034c4:	b089      	sub	sp, #36	@ 0x24
100034c6:	6800      	ldr	r0, [r0, #0]
100034c8:	f000 faa2 	bl	10003a10 <pio_add_program>
100034cc:	f04f 0b03 	mov.w	fp, #3
100034d0:	f10a 0318 	add.w	r3, sl, #24
100034d4:	9301      	str	r3, [sp, #4]
100034d6:	1c41      	adds	r1, r0, #1
100034d8:	01c3      	lsls	r3, r0, #7
100034da:	ea43 3301 	orr.w	r3, r3, r1, lsl #12
100034de:	f023 43c0 	bic.w	r3, r3, #1610612736	@ 0x60000000
100034e2:	e9cd 3002 	strd	r3, r0, [sp, #8]
100034e6:	f8df 8184 	ldr.w	r8, [pc, #388]	@ 1000366c <dvi_serialiser_init+0x1b0>
100034ea:	f10a 050c 	add.w	r5, sl, #12
100034ee:	f8ca 0024 	str.w	r0, [sl, #36]	@ 0x24
100034f2:	f855 1c08 	ldr.w	r1, [r5, #-8]
100034f6:	f8da 0000 	ldr.w	r0, [sl]
100034fa:	f000 fa69 	bl	100039d0 <pio_sm_claim>
100034fe:	2202      	movs	r2, #2
10003500:	f855 7c08 	ldr.w	r7, [r5, #-8]
10003504:	f855 4f04 	ldr.w	r4, [r5, #4]!
10003508:	f8da 6000 	ldr.w	r6, [sl]
1000350c:	fa0b f904 	lsl.w	r9, fp, r4
10003510:	464b      	mov	r3, r9
10003512:	40a2      	lsls	r2, r4
10003514:	4639      	mov	r1, r7
10003516:	4630      	mov	r0, r6
10003518:	f000 faf6 	bl	10003b08 <pio_sm_set_pins_with_mask>
1000351c:	464b      	mov	r3, r9
1000351e:	f04f 32ff 	mov.w	r2, #4294967295	@ 0xffffffff
10003522:	4639      	mov	r1, r7
10003524:	4630      	mov	r0, r6
10003526:	f000 fb23 	bl	10003b70 <pio_sm_set_pindirs_with_mask>
1000352a:	f106 412f 	add.w	r1, r6, #2936012800	@ 0xaf000000
1000352e:	f501 0160 	add.w	r1, r1, #14680064	@ 0xe00000
10003532:	0d09      	lsrs	r1, r1, #20
10003534:	3106      	adds	r1, #6
10003536:	fa5f f981 	uxtb.w	r9, r1
1000353a:	4620      	mov	r0, r4
1000353c:	4649      	mov	r1, r9
1000353e:	f7fe fa09 	bl	10001954 <gpio_set_function>
10003542:	1c60      	adds	r0, r4, #1
10003544:	4649      	mov	r1, r9
10003546:	f7fe fa05 	bl	10001954 <gpio_set_function>
1000354a:	f44f 3380 	mov.w	r3, #65536	@ 0x10000
1000354e:	9304      	str	r3, [sp, #16]
10003550:	9b02      	ldr	r3, [sp, #8]
10003552:	02a4      	lsls	r4, r4, #10
10003554:	9305      	str	r3, [sp, #20]
10003556:	4b44      	ldr	r3, [pc, #272]	@ (10003668 <dvi_serialiser_init+0x1ac>)
10003558:	f404 44f8 	and.w	r4, r4, #31744	@ 0x7c00
1000355c:	4639      	mov	r1, r7
1000355e:	9a03      	ldr	r2, [sp, #12]
10003560:	9306      	str	r3, [sp, #24]
10003562:	4630      	mov	r0, r6
10003564:	ab04      	add	r3, sp, #16
10003566:	f044 4480 	orr.w	r4, r4, #1073741824	@ 0x40000000
1000356a:	9407      	str	r4, [sp, #28]
1000356c:	f000 fb7c 	bl	10003c68 <pio_sm_init>
10003570:	2201      	movs	r2, #1
10003572:	6833      	ldr	r3, [r6, #0]
10003574:	40ba      	lsls	r2, r7
10003576:	6828      	ldr	r0, [r5, #0]
10003578:	ea23 0302 	bic.w	r3, r3, r2
1000357c:	6033      	str	r3, [r6, #0]
1000357e:	f858 2020 	ldr.w	r2, [r8, r0, lsl #2]
10003582:	eb08 0380 	add.w	r3, r8, r0, lsl #2
10003586:	f002 0271 	and.w	r2, r2, #113	@ 0x71
1000358a:	f503 5380 	add.w	r3, r3, #4096	@ 0x1000
1000358e:	f89a 1020 	ldrb.w	r1, [sl, #32]
10003592:	601a      	str	r2, [r3, #0]
10003594:	f7fe fa10 	bl	100019b8 <gpio_set_outover>
10003598:	6828      	ldr	r0, [r5, #0]
1000359a:	f89a 1020 	ldrb.w	r1, [sl, #32]
1000359e:	3001      	adds	r0, #1
100035a0:	f858 2020 	ldr.w	r2, [r8, r0, lsl #2]
100035a4:	eb08 0380 	add.w	r3, r8, r0, lsl #2
100035a8:	f503 5380 	add.w	r3, r3, #4096	@ 0x1000
100035ac:	f002 0271 	and.w	r2, r2, #113	@ 0x71
100035b0:	601a      	str	r2, [r3, #0]
100035b2:	f7fe fa01 	bl	100019b8 <gpio_set_outover>
100035b6:	9b01      	ldr	r3, [sp, #4]
100035b8:	42ab      	cmp	r3, r5
100035ba:	d19a      	bne.n	100034f2 <dvi_serialiser_init+0x36>
100035bc:	f8da 401c 	ldr.w	r4, [sl, #28]
100035c0:	2000      	movs	r0, #0
100035c2:	2c1f      	cmp	r4, #31
100035c4:	ea4f 0354 	mov.w	r3, r4, lsr #1
100035c8:	d831      	bhi.n	1000362e <dvi_serialiser_init+0x172>
100035ca:	2209      	movs	r2, #9
100035cc:	2710      	movs	r7, #16
100035ce:	2604      	movs	r6, #4
100035d0:	f04f 1505 	mov.w	r5, #327685	@ 0x50005
100035d4:	f003 0307 	and.w	r3, r3, #7
100035d8:	eb03 0383 	add.w	r3, r3, r3, lsl #2
100035dc:	009b      	lsls	r3, r3, #2
100035de:	f103 4180 	add.w	r1, r3, #1073741824	@ 0x40000000
100035e2:	f501 2328 	add.w	r3, r1, #688128	@ 0xa8000
100035e6:	6018      	str	r0, [r3, #0]
100035e8:	6098      	str	r0, [r3, #8]
100035ea:	60d8      	str	r0, [r3, #12]
100035ec:	611a      	str	r2, [r3, #16]
100035ee:	605f      	str	r7, [r3, #4]
100035f0:	601e      	str	r6, [r3, #0]
100035f2:	60dd      	str	r5, [r3, #12]
100035f4:	4d1d      	ldr	r5, [pc, #116]	@ (1000366c <dvi_serialiser_init+0x1b0>)
100035f6:	eb05 0584 	add.w	r5, r5, r4, lsl #2
100035fa:	4620      	mov	r0, r4
100035fc:	2104      	movs	r1, #4
100035fe:	f7fe f9a9 	bl	10001954 <gpio_set_function>
10003602:	682b      	ldr	r3, [r5, #0]
10003604:	f505 5280 	add.w	r2, r5, #4096	@ 0x1000
10003608:	f003 0371 	and.w	r3, r3, #113	@ 0x71
1000360c:	4620      	mov	r0, r4
1000360e:	f89a 1020 	ldrb.w	r1, [sl, #32]
10003612:	6013      	str	r3, [r2, #0]
10003614:	f7fe f9d0 	bl	100019b8 <gpio_set_outover>
10003618:	f8da 301c 	ldr.w	r3, [sl, #28]
1000361c:	3401      	adds	r4, #1
1000361e:	3301      	adds	r3, #1
10003620:	42a3      	cmp	r3, r4
10003622:	f105 0504 	add.w	r5, r5, #4
10003626:	d2e8      	bcs.n	100035fa <dvi_serialiser_init+0x13e>
10003628:	b009      	add	sp, #36	@ 0x24
1000362a:	e8bd 8ff0 	ldmia.w	sp!, {r4, r5, r6, r7, r8, r9, sl, fp, pc}
1000362e:	2209      	movs	r2, #9
10003630:	2710      	movs	r7, #16
10003632:	2604      	movs	r6, #4
10003634:	f04f 1505 	mov.w	r5, #327685	@ 0x50005
10003638:	f003 0303 	and.w	r3, r3, #3
1000363c:	3308      	adds	r3, #8
1000363e:	eb03 0383 	add.w	r3, r3, r3, lsl #2
10003642:	009b      	lsls	r3, r3, #2
10003644:	f103 4180 	add.w	r1, r3, #1073741824	@ 0x40000000
10003648:	f501 2328 	add.w	r3, r1, #688128	@ 0xa8000
1000364c:	6018      	str	r0, [r3, #0]
1000364e:	6098      	str	r0, [r3, #8]
10003650:	60d8      	str	r0, [r3, #12]
10003652:	611a      	str	r2, [r3, #16]
10003654:	605f      	str	r7, [r3, #4]
10003656:	601e      	str	r6, [r3, #0]
10003658:	60dd      	str	r5, [r3, #12]
1000365a:	1c63      	adds	r3, r4, #1
1000365c:	d1ca      	bne.n	100035f4 <dvi_serialiser_init+0x138>
1000365e:	b009      	add	sp, #36	@ 0x24
10003660:	e8bd 8ff0 	ldmia.w	sp!, {r4, r5, r6, r7, r8, r9, sl, fp, pc}
10003664:	10005b0c 	.word	0x10005b0c
10003668:	680e0000 	.word	0x680e0000
1000366c:	40038004 	.word	0x40038004

10003670 <dvi_serialiser_enable>:
10003670:	2301      	movs	r3, #1
10003672:	b410      	push	{r4}
10003674:	6884      	ldr	r4, [r0, #8]
10003676:	6842      	ldr	r2, [r0, #4]
10003678:	fa03 fc04 	lsl.w	ip, r3, r4
1000367c:	68c4      	ldr	r4, [r0, #12]
1000367e:	fa03 f202 	lsl.w	r2, r3, r2
10003682:	40a3      	lsls	r3, r4
10003684:	69c4      	ldr	r4, [r0, #28]
10003686:	ea42 020c 	orr.w	r2, r2, ip
1000368a:	431a      	orrs	r2, r3
1000368c:	6800      	ldr	r0, [r0, #0]
1000368e:	0863      	lsrs	r3, r4, #1
10003690:	b1d1      	cbz	r1, 100036c8 <dvi_serialiser_enable+0x58>
10003692:	2c1f      	cmp	r4, #31
10003694:	bf8a      	itet	hi
10003696:	f003 0303 	andhi.w	r3, r3, #3
1000369a:	f003 0307 	andls.w	r3, r3, #7
1000369e:	3308      	addhi	r3, #8
100036a0:	eb03 0383 	add.w	r3, r3, r3, lsl #2
100036a4:	009b      	lsls	r3, r3, #2
100036a6:	f103 4380 	add.w	r3, r3, #1073741824	@ 0x40000000
100036aa:	f500 5000 	add.w	r0, r0, #8192	@ 0x2000
100036ae:	6002      	str	r2, [r0, #0]
100036b0:	f503 2228 	add.w	r2, r3, #688128	@ 0xa8000
100036b4:	6812      	ldr	r2, [r2, #0]
100036b6:	f503 2329 	add.w	r3, r3, #692224	@ 0xa9000
100036ba:	43d2      	mvns	r2, r2
100036bc:	f002 0201 	and.w	r2, r2, #1
100036c0:	f85d 4b04 	ldr.w	r4, [sp], #4
100036c4:	601a      	str	r2, [r3, #0]
100036c6:	4770      	bx	lr
100036c8:	2c1f      	cmp	r4, #31
100036ca:	bf8a      	itet	hi
100036cc:	f003 0303 	andhi.w	r3, r3, #3
100036d0:	f003 0307 	andls.w	r3, r3, #7
100036d4:	3308      	addhi	r3, #8
100036d6:	eb03 0383 	add.w	r3, r3, r3, lsl #2
100036da:	009b      	lsls	r3, r3, #2
100036dc:	f103 4380 	add.w	r3, r3, #1073741824	@ 0x40000000
100036e0:	f500 5040 	add.w	r0, r0, #12288	@ 0x3000
100036e4:	6002      	str	r2, [r0, #0]
100036e6:	f503 2228 	add.w	r2, r3, #688128	@ 0xa8000
100036ea:	6812      	ldr	r2, [r2, #0]
100036ec:	f503 2329 	add.w	r3, r3, #692224	@ 0xa9000
100036f0:	f002 0201 	and.w	r2, r2, #1
100036f4:	f85d 4b04 	ldr.w	r4, [sp], #4
100036f8:	601a      	str	r2, [r3, #0]
100036fa:	4770      	bx	lr

100036fc <dvi_timing_state_init>:
100036fc:	2300      	movs	r3, #0
100036fe:	6003      	str	r3, [r0, #0]
10003700:	7103      	strb	r3, [r0, #4]
10003702:	4770      	bx	lr

10003704 <dvi_setup_scanline_for_vblank>:
10003704:	e92d 4ff0 	stmdb	sp!, {r4, r5, r6, r7, r8, r9, sl, fp, lr}
10003708:	e9d0 7901 	ldrd	r7, r9, [r0, #4]
1000370c:	7d06      	ldrb	r6, [r0, #20]
1000370e:	4c3e      	ldr	r4, [pc, #248]	@ (10003808 <dvi_setup_scanline_for_vblank+0x104>)
10003710:	1ab2      	subs	r2, r6, r2
10003712:	fab2 f282 	clz	r2, r2
10003716:	684e      	ldr	r6, [r1, #4]
10003718:	f890 e000 	ldrb.w	lr, [r0]
1000371c:	ea04 3c46 	and.w	ip, r4, r6, lsl #13
10003720:	68ce      	ldr	r6, [r1, #12]
10003722:	0952      	lsrs	r2, r2, #5
10003724:	ea4c 4c46 	orr.w	ip, ip, r6, lsl #17
10003728:	680e      	ldr	r6, [r1, #0]
1000372a:	f42c 3cf0 	bic.w	ip, ip, #122880	@ 0x1e000
1000372e:	ea4c 3c46 	orr.w	ip, ip, r6, lsl #13
10003732:	e9d0 6003 	ldrd	r6, r0, [r0, #12]
10003736:	ea4f 0a50 	mov.w	sl, r0, lsr #1
1000373a:	f08e 0001 	eor.w	r0, lr, #1
1000373e:	ea40 0042 	orr.w	r0, r0, r2, lsl #1
10003742:	ea4e 0e42 	orr.w	lr, lr, r2, lsl #1
10003746:	eb07 0209 	add.w	r2, r7, r9
1000374a:	b083      	sub	sp, #12
1000374c:	4432      	add	r2, r6
1000374e:	0876      	lsrs	r6, r6, #1
10003750:	9601      	str	r6, [sp, #4]
10003752:	f42c 0b00 	bic.w	fp, ip, #8388608	@ 0x800000
10003756:	087f      	lsrs	r7, r7, #1
10003758:	688e      	ldr	r6, [r1, #8]
1000375a:	f44b 7b06 	orr.w	fp, fp, #536	@ 0x218
1000375e:	609f      	str	r7, [r3, #8]
10003760:	9f01      	ldr	r7, [sp, #4]
10003762:	4d2a      	ldr	r5, [pc, #168]	@ (1000380c <dvi_setup_scanline_for_vblank+0x108>)
10003764:	f8df 80a8 	ldr.w	r8, [pc, #168]	@ 10003810 <dvi_setup_scanline_for_vblank+0x10c>
10003768:	f04b 0b01 	orr.w	fp, fp, #1
1000376c:	e9c3 7b0a 	strd	r7, fp, [r3, #40]	@ 0x28
10003770:	698f      	ldr	r7, [r1, #24]
10003772:	eb05 0080 	add.w	r0, r5, r0, lsl #2
10003776:	ea4c 0c08 	orr.w	ip, ip, r8
1000377a:	0852      	lsrs	r2, r2, #1
1000377c:	eb05 0e8e 	add.w	lr, r5, lr, lsl #2
10003780:	ea4f 0959 	mov.w	r9, r9, lsr #1
10003784:	e9c3 6a0d 	strd	r6, sl, [r3, #52]	@ 0x34
10003788:	6018      	str	r0, [r3, #0]
1000378a:	605e      	str	r6, [r3, #4]
1000378c:	615e      	str	r6, [r3, #20]
1000378e:	6218      	str	r0, [r3, #32]
10003790:	6318      	str	r0, [r3, #48]	@ 0x30
10003792:	625e      	str	r6, [r3, #36]	@ 0x24
10003794:	f8c3 e010 	str.w	lr, [r3, #16]
10003798:	f8c3 9018 	str.w	r9, [r3, #24]
1000379c:	f8c3 c00c 	str.w	ip, [r3, #12]
100037a0:	f8c3 c01c 	str.w	ip, [r3, #28]
100037a4:	f8c3 c03c 	str.w	ip, [r3, #60]	@ 0x3c
100037a8:	641d      	str	r5, [r3, #64]	@ 0x40
100037aa:	e9c3 7211 	strd	r7, r2, [r3, #68]	@ 0x44
100037ae:	6948      	ldr	r0, [r1, #20]
100037b0:	69ce      	ldr	r6, [r1, #28]
100037b2:	ea04 3040 	and.w	r0, r4, r0, lsl #13
100037b6:	ea40 4046 	orr.w	r0, r0, r6, lsl #17
100037ba:	690e      	ldr	r6, [r1, #16]
100037bc:	f420 30f0 	bic.w	r0, r0, #122880	@ 0x1e000
100037c0:	ea40 3046 	orr.w	r0, r0, r6, lsl #13
100037c4:	ea40 0008 	orr.w	r0, r0, r8
100037c8:	64d8      	str	r0, [r3, #76]	@ 0x4c
100037ca:	65d8      	str	r0, [r3, #92]	@ 0x5c
100037cc:	6a48      	ldr	r0, [r1, #36]	@ 0x24
100037ce:	655f      	str	r7, [r3, #84]	@ 0x54
100037d0:	ea04 3040 	and.w	r0, r4, r0, lsl #13
100037d4:	6acc      	ldr	r4, [r1, #44]	@ 0x2c
100037d6:	651d      	str	r5, [r3, #80]	@ 0x50
100037d8:	ea40 4044 	orr.w	r0, r0, r4, lsl #17
100037dc:	6a0c      	ldr	r4, [r1, #32]
100037de:	f420 30f0 	bic.w	r0, r0, #122880	@ 0x1e000
100037e2:	6a89      	ldr	r1, [r1, #40]	@ 0x28
100037e4:	ea40 3044 	orr.w	r0, r0, r4, lsl #13
100037e8:	ea40 0008 	orr.w	r0, r0, r8
100037ec:	e9c3 1a1d 	strd	r1, sl, [r3, #116]	@ 0x74
100037f0:	f8c3 a058 	str.w	sl, [r3, #88]	@ 0x58
100037f4:	661d      	str	r5, [r3, #96]	@ 0x60
100037f6:	669a      	str	r2, [r3, #104]	@ 0x68
100037f8:	671d      	str	r5, [r3, #112]	@ 0x70
100037fa:	6659      	str	r1, [r3, #100]	@ 0x64
100037fc:	66d8      	str	r0, [r3, #108]	@ 0x6c
100037fe:	67d8      	str	r0, [r3, #124]	@ 0x7c
10003800:	b003      	add	sp, #12
10003802:	e8bd 8ff0 	ldmia.w	sp!, {r4, r5, r6, r7, r8, r9, sl, fp, pc}
10003806:	bf00      	nop
10003808:	fc01fffd 	.word	0xfc01fffd
1000380c:	20000a74 	.word	0x20000a74
10003810:	00800219 	.word	0x00800219

10003814 <dvi_setup_scanline_for_active>:
10003814:	e92d 4ff0 	stmdb	sp!, {r4, r5, r6, r7, r8, r9, sl, fp, lr}
10003818:	e9d0 a901 	ldrd	sl, r9, [r0, #4]
1000381c:	684d      	ldr	r5, [r1, #4]
1000381e:	4c5f      	ldr	r4, [pc, #380]	@ (1000399c <dvi_setup_scanline_for_active+0x188>)
10003820:	f890 8000 	ldrb.w	r8, [r0]
10003824:	ea04 3c45 	and.w	ip, r4, r5, lsl #13
10003828:	68cd      	ldr	r5, [r1, #12]
1000382a:	f890 b014 	ldrb.w	fp, [r0, #20]
1000382e:	ea4c 4c45 	orr.w	ip, ip, r5, lsl #17
10003832:	680d      	ldr	r5, [r1, #0]
10003834:	f42c 3cf0 	bic.w	ip, ip, #122880	@ 0x1e000
10003838:	ea4c 3c45 	orr.w	ip, ip, r5, lsl #13
1000383c:	f08b 0b01 	eor.w	fp, fp, #1
10003840:	4f57      	ldr	r7, [pc, #348]	@ (100039a0 <dvi_setup_scanline_for_active+0x18c>)
10003842:	f088 0501 	eor.w	r5, r8, #1
10003846:	ea45 054b 	orr.w	r5, r5, fp, lsl #1
1000384a:	eb07 0585 	add.w	r5, r7, r5, lsl #2
1000384e:	e9d0 e003 	ldrd	lr, r0, [r0, #12]
10003852:	ea48 084b 	orr.w	r8, r8, fp, lsl #1
10003856:	601d      	str	r5, [r3, #0]
10003858:	f8d1 b008 	ldr.w	fp, [r1, #8]
1000385c:	621d      	str	r5, [r3, #32]
1000385e:	ea4f 055a 	mov.w	r5, sl, lsr #1
10003862:	eb07 0688 	add.w	r6, r7, r8, lsl #2
10003866:	609d      	str	r5, [r3, #8]
10003868:	f42c 0800 	bic.w	r8, ip, #8388608	@ 0x800000
1000386c:	ea4f 0559 	mov.w	r5, r9, lsr #1
10003870:	f448 7806 	orr.w	r8, r8, #536	@ 0x218
10003874:	619d      	str	r5, [r3, #24]
10003876:	ea4f 055e 	mov.w	r5, lr, lsr #1
1000387a:	f048 0801 	orr.w	r8, r8, #1
1000387e:	629d      	str	r5, [r3, #40]	@ 0x28
10003880:	4d48      	ldr	r5, [pc, #288]	@ (100039a4 <dvi_setup_scanline_for_active+0x190>)
10003882:	f8c3 802c 	str.w	r8, [r3, #44]	@ 0x2c
10003886:	eb0a 0809 	add.w	r8, sl, r9
1000388a:	ea4c 0505 	orr.w	r5, ip, r5
1000388e:	44f0      	add	r8, lr
10003890:	0840      	lsrs	r0, r0, #1
10003892:	611e      	str	r6, [r3, #16]
10003894:	f8c3 b004 	str.w	fp, [r3, #4]
10003898:	f8c3 b014 	str.w	fp, [r3, #20]
1000389c:	f8c3 b024 	str.w	fp, [r3, #36]	@ 0x24
100038a0:	ea4f 0e58 	mov.w	lr, r8, lsr #1
100038a4:	60dd      	str	r5, [r3, #12]
100038a6:	61dd      	str	r5, [r3, #28]
100038a8:	f8c3 b034 	str.w	fp, [r3, #52]	@ 0x34
100038ac:	2a00      	cmp	r2, #0
100038ae:	d040      	beq.n	10003932 <dvi_setup_scanline_for_active+0x11e>
100038b0:	694d      	ldr	r5, [r1, #20]
100038b2:	69ce      	ldr	r6, [r1, #28]
100038b4:	ea04 3545 	and.w	r5, r4, r5, lsl #13
100038b8:	ea45 4546 	orr.w	r5, r5, r6, lsl #17
100038bc:	6a4e      	ldr	r6, [r1, #36]	@ 0x24
100038be:	f425 35f0 	bic.w	r5, r5, #122880	@ 0x1e000
100038c2:	ea04 3446 	and.w	r4, r4, r6, lsl #13
100038c6:	6ace      	ldr	r6, [r1, #44]	@ 0x2c
100038c8:	631a      	str	r2, [r3, #48]	@ 0x30
100038ca:	ea44 4446 	orr.w	r4, r4, r6, lsl #17
100038ce:	690e      	ldr	r6, [r1, #16]
100038d0:	641f      	str	r7, [r3, #64]	@ 0x40
100038d2:	ea45 3846 	orr.w	r8, r5, r6, lsl #13
100038d6:	4d34      	ldr	r5, [pc, #208]	@ (100039a8 <dvi_setup_scanline_for_active+0x194>)
100038d8:	6a0e      	ldr	r6, [r1, #32]
100038da:	ea4c 0c05 	orr.w	ip, ip, r5
100038de:	f8c3 c03c 	str.w	ip, [r3, #60]	@ 0x3c
100038e2:	f8d1 c018 	ldr.w	ip, [r1, #24]
100038e6:	661f      	str	r7, [r3, #96]	@ 0x60
100038e8:	4f2e      	ldr	r7, [pc, #184]	@ (100039a4 <dvi_setup_scanline_for_active+0x190>)
100038ea:	f424 34f0 	bic.w	r4, r4, #122880	@ 0x1e000
100038ee:	ea44 3446 	orr.w	r4, r4, r6, lsl #13
100038f2:	ea48 0707 	orr.w	r7, r8, r7
100038f6:	4e2b      	ldr	r6, [pc, #172]	@ (100039a4 <dvi_setup_scanline_for_active+0x190>)
100038f8:	6a89      	ldr	r1, [r1, #40]	@ 0x28
100038fa:	eb02 0280 	add.w	r2, r2, r0, lsl #2
100038fe:	64df      	str	r7, [r3, #76]	@ 0x4c
10003900:	ea48 0705 	orr.w	r7, r8, r5
10003904:	651a      	str	r2, [r3, #80]	@ 0x50
10003906:	4326      	orrs	r6, r4
10003908:	6398      	str	r0, [r3, #56]	@ 0x38
1000390a:	f8c3 c044 	str.w	ip, [r3, #68]	@ 0x44
1000390e:	f8c3 c054 	str.w	ip, [r3, #84]	@ 0x54
10003912:	f8c3 e048 	str.w	lr, [r3, #72]	@ 0x48
10003916:	6598      	str	r0, [r3, #88]	@ 0x58
10003918:	eb02 0280 	add.w	r2, r2, r0, lsl #2
1000391c:	65df      	str	r7, [r3, #92]	@ 0x5c
1000391e:	432c      	orrs	r4, r5
10003920:	e9c3 e61a 	strd	lr, r6, [r3, #104]	@ 0x68
10003924:	e9c3 211c 	strd	r2, r1, [r3, #112]	@ 0x70
10003928:	e9c3 041e 	strd	r0, r4, [r3, #120]	@ 0x78
1000392c:	6659      	str	r1, [r3, #100]	@ 0x64
1000392e:	e8bd 8ff0 	ldmia.w	sp!, {r4, r5, r6, r7, r8, r9, sl, fp, pc}
10003932:	694a      	ldr	r2, [r1, #20]
10003934:	e9c3 050e 	strd	r0, r5, [r3, #56]	@ 0x38
10003938:	ea04 3542 	and.w	r5, r4, r2, lsl #13
1000393c:	6a4a      	ldr	r2, [r1, #36]	@ 0x24
1000393e:	698e      	ldr	r6, [r1, #24]
10003940:	ea04 3442 	and.w	r4, r4, r2, lsl #13
10003944:	69ca      	ldr	r2, [r1, #28]
10003946:	ea45 4542 	orr.w	r5, r5, r2, lsl #17
1000394a:	6aca      	ldr	r2, [r1, #44]	@ 0x2c
1000394c:	f425 35f0 	bic.w	r5, r5, #122880	@ 0x1e000
10003950:	ea44 4442 	orr.w	r4, r4, r2, lsl #17
10003954:	690a      	ldr	r2, [r1, #16]
10003956:	f424 34f0 	bic.w	r4, r4, #122880	@ 0x1e000
1000395a:	ea45 3542 	orr.w	r5, r5, r2, lsl #13
1000395e:	6a0a      	ldr	r2, [r1, #32]
10003960:	f445 0500 	orr.w	r5, r5, #8388608	@ 0x800000
10003964:	ea44 3442 	orr.w	r4, r4, r2, lsl #13
10003968:	f445 7506 	orr.w	r5, r5, #536	@ 0x218
1000396c:	4a0f      	ldr	r2, [pc, #60]	@ (100039ac <dvi_setup_scanline_for_active+0x198>)
1000396e:	f444 0400 	orr.w	r4, r4, #8388608	@ 0x800000
10003972:	f045 0501 	orr.w	r5, r5, #1
10003976:	f444 7406 	orr.w	r4, r4, #536	@ 0x218
1000397a:	6a89      	ldr	r1, [r1, #40]	@ 0x28
1000397c:	f044 0401 	orr.w	r4, r4, #1
10003980:	e9c3 e512 	strd	lr, r5, [r3, #72]	@ 0x48
10003984:	e9c3 0516 	strd	r0, r5, [r3, #88]	@ 0x58
10003988:	1d15      	adds	r5, r2, #4
1000398a:	631a      	str	r2, [r3, #48]	@ 0x30
1000398c:	645e      	str	r6, [r3, #68]	@ 0x44
1000398e:	655e      	str	r6, [r3, #84]	@ 0x54
10003990:	641f      	str	r7, [r3, #64]	@ 0x40
10003992:	4626      	mov	r6, r4
10003994:	661f      	str	r7, [r3, #96]	@ 0x60
10003996:	651d      	str	r5, [r3, #80]	@ 0x50
10003998:	3208      	adds	r2, #8
1000399a:	e7c1      	b.n	10003920 <dvi_setup_scanline_for_active+0x10c>
1000399c:	fc01fffd 	.word	0xfc01fffd
100039a0:	20000a74 	.word	0x20000a74
100039a4:	00800219 	.word	0x00800219
100039a8:	00800019 	.word	0x00800019
100039ac:	20000a68 	.word	0x20000a68

100039b0 <dma_claim_unused_channel>:
100039b0:	b510      	push	{r4, lr}
100039b2:	4c05      	ldr	r4, [pc, #20]	@ (100039c8 <dma_claim_unused_channel+0x18>)
100039b4:	b082      	sub	sp, #8
100039b6:	4601      	mov	r1, r0
100039b8:	230f      	movs	r3, #15
100039ba:	2200      	movs	r2, #0
100039bc:	9400      	str	r4, [sp, #0]
100039be:	4803      	ldr	r0, [pc, #12]	@ (100039cc <dma_claim_unused_channel+0x1c>)
100039c0:	f7fe f88e 	bl	10001ae0 <hw_claim_unused_from_range>
100039c4:	b002      	add	sp, #8
100039c6:	bd10      	pop	{r4, pc}
100039c8:	10004a1c 	.word	0x10004a1c
100039cc:	200094f4 	.word	0x200094f4

100039d0 <pio_sm_claim>:
100039d0:	f100 402f 	add.w	r0, r0, #2936012800	@ 0xaf000000
100039d4:	f500 0060 	add.w	r0, r0, #14680064	@ 0xe00000
100039d8:	0d03      	lsrs	r3, r0, #20
100039da:	2b02      	cmp	r3, #2
100039dc:	d009      	beq.n	100039f2 <pio_sm_claim+0x22>
100039de:	4808      	ldr	r0, [pc, #32]	@ (10003a00 <pio_sm_claim+0x30>)
100039e0:	4a08      	ldr	r2, [pc, #32]	@ (10003a04 <pio_sm_claim+0x34>)
100039e2:	eb01 0183 	add.w	r1, r1, r3, lsl #2
100039e6:	2b01      	cmp	r3, #1
100039e8:	bf08      	it	eq
100039ea:	4602      	moveq	r2, r0
100039ec:	4806      	ldr	r0, [pc, #24]	@ (10003a08 <pio_sm_claim+0x38>)
100039ee:	f7fe b84b 	b.w	10001a88 <hw_claim_or_assert>
100039f2:	4a06      	ldr	r2, [pc, #24]	@ (10003a0c <pio_sm_claim+0x3c>)
100039f4:	4804      	ldr	r0, [pc, #16]	@ (10003a08 <pio_sm_claim+0x38>)
100039f6:	eb01 0183 	add.w	r1, r1, r3, lsl #2
100039fa:	f7fe b845 	b.w	10001a88 <hw_claim_or_assert>
100039fe:	bf00      	nop
10003a00:	10004a7c 	.word	0x10004a7c
10003a04:	10004a3c 	.word	0x10004a3c
10003a08:	200019b0 	.word	0x200019b0
10003a0c:	10004a58 	.word	0x10004a58

10003a10 <pio_add_program>:
10003a10:	e92d 47f0 	stmdb	sp!, {r4, r5, r6, r7, r8, r9, sl, lr}
10003a14:	4689      	mov	r9, r1
10003a16:	4605      	mov	r5, r0
10003a18:	f7fe f81a 	bl	10001a50 <hw_claim_lock>
10003a1c:	2301      	movs	r3, #1
10003a1e:	f899 2004 	ldrb.w	r2, [r9, #4]
10003a22:	f999 c005 	ldrsb.w	ip, [r9, #5]
10003a26:	f105 4e2f 	add.w	lr, r5, #2936012800	@ 0xaf000000
10003a2a:	f8df 80d8 	ldr.w	r8, [pc, #216]	@ 10003b04 <pio_add_program+0xf4>
10003a2e:	f50e 0e60 	add.w	lr, lr, #14680064	@ 0xe00000
10003a32:	4093      	lsls	r3, r2
10003a34:	ea4f 5e1e 	mov.w	lr, lr, lsr #20
10003a38:	f1bc 0f00 	cmp.w	ip, #0
10003a3c:	f858 702e 	ldr.w	r7, [r8, lr, lsl #2]
10003a40:	f103 33ff 	add.w	r3, r3, #4294967295	@ 0xffffffff
10003a44:	db46      	blt.n	10003ad4 <pio_add_program+0xc4>
10003a46:	f1c2 0120 	rsb	r1, r2, #32
10003a4a:	458c      	cmp	ip, r1
10003a4c:	4664      	mov	r4, ip
10003a4e:	dc31      	bgt.n	10003ab4 <pio_add_program+0xa4>
10003a50:	fa03 f10c 	lsl.w	r1, r3, ip
10003a54:	4239      	tst	r1, r7
10003a56:	d12d      	bne.n	10003ab4 <pio_add_program+0xa4>
10003a58:	4666      	mov	r6, ip
10003a5a:	f8d5 a168 	ldr.w	sl, [r5, #360]	@ 0x168
10003a5e:	f899 1007 	ldrb.w	r1, [r9, #7]
10003a62:	f1ba 0f00 	cmp.w	sl, #0
10003a66:	d02c      	beq.n	10003ac2 <pio_add_program+0xb2>
10003a68:	07c9      	lsls	r1, r1, #31
10003a6a:	d42c      	bmi.n	10003ac6 <pio_add_program+0xb6>
10003a6c:	f1bc 0f00 	cmp.w	ip, #0
10003a70:	db01      	blt.n	10003a76 <pio_add_program+0x66>
10003a72:	4566      	cmp	r6, ip
10003a74:	d127      	bne.n	10003ac6 <pio_add_program+0xb6>
10003a76:	40b3      	lsls	r3, r6
10003a78:	421f      	tst	r7, r3
10003a7a:	d13c      	bne.n	10003af6 <pio_add_program+0xe6>
10003a7c:	f8d9 1000 	ldr.w	r1, [r9]
10003a80:	b182      	cbz	r2, 10003aa4 <pio_add_program+0x94>
10003a82:	46b4      	mov	ip, r6
10003a84:	eb01 0942 	add.w	r9, r1, r2, lsl #1
10003a88:	f831 2b02 	ldrh.w	r2, [r1], #2
10003a8c:	f10c 0a12 	add.w	sl, ip, #18
10003a90:	f5b2 5f00 	cmp.w	r2, #8192	@ 0x2000
10003a94:	bf38      	it	cc
10003a96:	1992      	addcc	r2, r2, r6
10003a98:	4549      	cmp	r1, r9
10003a9a:	f10c 0c01 	add.w	ip, ip, #1
10003a9e:	f845 202a 	str.w	r2, [r5, sl, lsl #2]
10003aa2:	d1f1      	bne.n	10003a88 <pio_add_program+0x78>
10003aa4:	433b      	orrs	r3, r7
10003aa6:	f848 302e 	str.w	r3, [r8, lr, lsl #2]
10003aaa:	f7fd ffe3 	bl	10001a74 <hw_claim_unlock>
10003aae:	4620      	mov	r0, r4
10003ab0:	e8bd 87f0 	ldmia.w	sp!, {r4, r5, r6, r7, r8, r9, sl, pc}
10003ab4:	f04f 34ff 	mov.w	r4, #4294967295	@ 0xffffffff
10003ab8:	f7fd ffdc 	bl	10001a74 <hw_claim_unlock>
10003abc:	4620      	mov	r0, r4
10003abe:	e8bd 87f0 	ldmia.w	sp!, {r4, r5, r6, r7, r8, r9, sl, pc}
10003ac2:	0749      	lsls	r1, r1, #29
10003ac4:	d5d2      	bpl.n	10003a6c <pio_add_program+0x5c>
10003ac6:	f06f 040a 	mvn.w	r4, #10
10003aca:	f7fd ffd3 	bl	10001a74 <hw_claim_unlock>
10003ace:	4620      	mov	r0, r4
10003ad0:	e8bd 87f0 	ldmia.w	sp!, {r4, r5, r6, r7, r8, r9, sl, pc}
10003ad4:	f1d2 0420 	rsbs	r4, r2, #32
10003ad8:	d40d      	bmi.n	10003af6 <pio_add_program+0xe6>
10003ada:	fa03 f104 	lsl.w	r1, r3, r4
10003ade:	4239      	tst	r1, r7
10003ae0:	4626      	mov	r6, r4
10003ae2:	d103      	bne.n	10003aec <pio_add_program+0xdc>
10003ae4:	e7b9      	b.n	10003a5a <pio_add_program+0x4a>
10003ae6:	4239      	tst	r1, r7
10003ae8:	4626      	mov	r6, r4
10003aea:	d0b6      	beq.n	10003a5a <pio_add_program+0x4a>
10003aec:	3c01      	subs	r4, #1
10003aee:	1c66      	adds	r6, r4, #1
10003af0:	fa03 f104 	lsl.w	r1, r3, r4
10003af4:	d1f7      	bne.n	10003ae6 <pio_add_program+0xd6>
10003af6:	f06f 0408 	mvn.w	r4, #8
10003afa:	f7fd ffbb 	bl	10001a74 <hw_claim_unlock>
10003afe:	4620      	mov	r0, r4
10003b00:	e8bd 87f0 	ldmia.w	sp!, {r4, r5, r6, r7, r8, r9, sl, pc}
10003b04:	200017a0 	.word	0x200017a0

10003b08 <pio_sm_set_pins_with_mask>:
10003b08:	e92d 43f0 	stmdb	sp!, {r4, r5, r6, r7, r8, r9, lr}
10003b0c:	f44f 3500 	mov.w	r5, #131072	@ 0x20000
10003b10:	eb01 0641 	add.w	r6, r1, r1, lsl #1
10003b14:	eb00 04c6 	add.w	r4, r0, r6, lsl #3
10003b18:	f504 5443 	add.w	r4, r4, #12480	@ 0x30c0
10003b1c:	eb00 06c6 	add.w	r6, r0, r6, lsl #3
10003b20:	f8d6 90dc 	ldr.w	r9, [r6, #220]	@ 0xdc
10003b24:	004f      	lsls	r7, r1, #1
10003b26:	f8d6 80cc 	ldr.w	r8, [r6, #204]	@ 0xcc
10003b2a:	60e5      	str	r5, [r4, #12]
10003b2c:	b1b3      	cbz	r3, 10003b5c <pio_sm_set_pins_with_mask+0x54>
10003b2e:	fa93 fca3 	rbit	ip, r3
10003b32:	fabc fc8c 	clz	ip, ip
10003b36:	fa22 f50c 	lsr.w	r5, r2, ip
10003b3a:	f103 3eff 	add.w	lr, r3, #4294967295	@ 0xffffffff
10003b3e:	ea4f 1c4c 	mov.w	ip, ip, lsl #5
10003b42:	f005 0501 	and.w	r5, r5, #1
10003b46:	f04c 6480 	orr.w	r4, ip, #67108864	@ 0x4000000
10003b4a:	f445 4560 	orr.w	r5, r5, #57344	@ 0xe000
10003b4e:	ea13 030e 	ands.w	r3, r3, lr
10003b52:	f8c6 40dc 	str.w	r4, [r6, #220]	@ 0xdc
10003b56:	f8c6 50d8 	str.w	r5, [r6, #216]	@ 0xd8
10003b5a:	d1e8      	bne.n	10003b2e <pio_sm_set_pins_with_mask+0x26>
10003b5c:	440f      	add	r7, r1
10003b5e:	eb00 00c7 	add.w	r0, r0, r7, lsl #3
10003b62:	f8c0 90dc 	str.w	r9, [r0, #220]	@ 0xdc
10003b66:	f8c0 80cc 	str.w	r8, [r0, #204]	@ 0xcc
10003b6a:	e8bd 83f0 	ldmia.w	sp!, {r4, r5, r6, r7, r8, r9, pc}
10003b6e:	bf00      	nop

10003b70 <pio_sm_set_pindirs_with_mask>:
10003b70:	e92d 47f0 	stmdb	sp!, {r4, r5, r6, r7, r8, r9, sl, lr}
10003b74:	f44f 3500 	mov.w	r5, #131072	@ 0x20000
10003b78:	eb01 0641 	add.w	r6, r1, r1, lsl #1
10003b7c:	eb00 04c6 	add.w	r4, r0, r6, lsl #3
10003b80:	f504 5443 	add.w	r4, r4, #12480	@ 0x30c0
10003b84:	eb00 06c6 	add.w	r6, r0, r6, lsl #3
10003b88:	f8d6 a0dc 	ldr.w	sl, [r6, #220]	@ 0xdc
10003b8c:	ea4f 0841 	mov.w	r8, r1, lsl #1
10003b90:	f8d6 90cc 	ldr.w	r9, [r6, #204]	@ 0xcc
10003b94:	60e5      	str	r5, [r4, #12]
10003b96:	b1bb      	cbz	r3, 10003bc8 <pio_sm_set_pindirs_with_mask+0x58>
10003b98:	f24e 0780 	movw	r7, #57472	@ 0xe080
10003b9c:	fa93 fca3 	rbit	ip, r3
10003ba0:	fabc fc8c 	clz	ip, ip
10003ba4:	fa22 f50c 	lsr.w	r5, r2, ip
10003ba8:	f103 3eff 	add.w	lr, r3, #4294967295	@ 0xffffffff
10003bac:	ea4f 1c4c 	mov.w	ip, ip, lsl #5
10003bb0:	f005 0501 	and.w	r5, r5, #1
10003bb4:	f04c 6480 	orr.w	r4, ip, #67108864	@ 0x4000000
10003bb8:	433d      	orrs	r5, r7
10003bba:	ea13 030e 	ands.w	r3, r3, lr
10003bbe:	f8c6 40dc 	str.w	r4, [r6, #220]	@ 0xdc
10003bc2:	f8c6 50d8 	str.w	r5, [r6, #216]	@ 0xd8
10003bc6:	d1e9      	bne.n	10003b9c <pio_sm_set_pindirs_with_mask+0x2c>
10003bc8:	4488      	add	r8, r1
10003bca:	eb00 00c8 	add.w	r0, r0, r8, lsl #3
10003bce:	f8c0 a0dc 	str.w	sl, [r0, #220]	@ 0xdc
10003bd2:	f8c0 90cc 	str.w	r9, [r0, #204]	@ 0xcc
10003bd6:	e8bd 87f0 	ldmia.w	sp!, {r4, r5, r6, r7, r8, r9, sl, pc}
10003bda:	bf00      	nop

10003bdc <pio_sm_set_consecutive_pindirs>:
10003bdc:	e92d 41f0 	stmdb	sp!, {r4, r5, r6, r7, r8, lr}
10003be0:	f8d0 4168 	ldr.w	r4, [r0, #360]	@ 0x168
10003be4:	f89d 6018 	ldrb.w	r6, [sp, #24]
10003be8:	1b12      	subs	r2, r2, r4
10003bea:	2a1f      	cmp	r2, #31
10003bec:	d838      	bhi.n	10003c60 <pio_sm_set_consecutive_pindirs+0x84>
10003bee:	f24e 049f 	movw	r4, #57503	@ 0xe09f
10003bf2:	f24e 0580 	movw	r5, #57472	@ 0xe080
10003bf6:	f44f 3800 	mov.w	r8, #131072	@ 0x20000
10003bfa:	eb01 0c41 	add.w	ip, r1, r1, lsl #1
10003bfe:	2e00      	cmp	r6, #0
10003c00:	bf18      	it	ne
10003c02:	4625      	movne	r5, r4
10003c04:	eb00 04cc 	add.w	r4, r0, ip, lsl #3
10003c08:	f504 5443 	add.w	r4, r4, #12480	@ 0x30c0
10003c0c:	eb00 0ccc 	add.w	ip, r0, ip, lsl #3
10003c10:	2b05      	cmp	r3, #5
10003c12:	f8dc 70dc 	ldr.w	r7, [ip, #220]	@ 0xdc
10003c16:	ea4f 0e41 	mov.w	lr, r1, lsl #1
10003c1a:	f8dc 60cc 	ldr.w	r6, [ip, #204]	@ 0xcc
10003c1e:	f8c4 800c 	str.w	r8, [r4, #12]
10003c22:	d90c      	bls.n	10003c3e <pio_sm_set_consecutive_pindirs+0x62>
10003c24:	0154      	lsls	r4, r2, #5
10003c26:	3b05      	subs	r3, #5
10003c28:	f044 54a0 	orr.w	r4, r4, #335544320	@ 0x14000000
10003c2c:	3205      	adds	r2, #5
10003c2e:	2b05      	cmp	r3, #5
10003c30:	f8cc 40dc 	str.w	r4, [ip, #220]	@ 0xdc
10003c34:	f002 021f 	and.w	r2, r2, #31
10003c38:	f8cc 50d8 	str.w	r5, [ip, #216]	@ 0xd8
10003c3c:	d8f2      	bhi.n	10003c24 <pio_sm_set_consecutive_pindirs+0x48>
10003c3e:	4471      	add	r1, lr
10003c40:	eb00 01c1 	add.w	r1, r0, r1, lsl #3
10003c44:	2000      	movs	r0, #0
10003c46:	0152      	lsls	r2, r2, #5
10003c48:	ea42 6383 	orr.w	r3, r2, r3, lsl #26
10003c4c:	f8c1 30dc 	str.w	r3, [r1, #220]	@ 0xdc
10003c50:	f8c1 50d8 	str.w	r5, [r1, #216]	@ 0xd8
10003c54:	f8c1 70dc 	str.w	r7, [r1, #220]	@ 0xdc
10003c58:	f8c1 60cc 	str.w	r6, [r1, #204]	@ 0xcc
10003c5c:	e8bd 81f0 	ldmia.w	sp!, {r4, r5, r6, r7, r8, pc}
10003c60:	f06f 0004 	mvn.w	r0, #4
10003c64:	e7fa      	b.n	10003c5c <pio_sm_set_consecutive_pindirs+0x80>
10003c66:	bf00      	nop

10003c68 <pio_sm_init>:
10003c68:	b5f0      	push	{r4, r5, r6, r7, lr}
10003c6a:	2501      	movs	r5, #1
10003c6c:	6804      	ldr	r4, [r0, #0]
10003c6e:	408d      	lsls	r5, r1
10003c70:	ea24 0405 	bic.w	r4, r4, r5
10003c74:	6004      	str	r4, [r0, #0]
10003c76:	b3b3      	cbz	r3, 10003ce6 <pio_sm_init+0x7e>
10003c78:	e9d3 5601 	ldrd	r5, r6, [r3, #4]
10003c7c:	681f      	ldr	r7, [r3, #0]
10003c7e:	68dc      	ldr	r4, [r3, #12]
10003c80:	eb01 0341 	add.w	r3, r1, r1, lsl #1
10003c84:	eb00 03c3 	add.w	r3, r0, r3, lsl #3
10003c88:	f8c3 70c8 	str.w	r7, [r3, #200]	@ 0xc8
10003c8c:	ea4f 0c41 	mov.w	ip, r1, lsl #1
10003c90:	f8c3 60d0 	str.w	r6, [r3, #208]	@ 0xd0
10003c94:	f8c3 50cc 	str.w	r5, [r3, #204]	@ 0xcc
10003c98:	f8c3 40dc 	str.w	r4, [r3, #220]	@ 0xdc
10003c9c:	eb0c 0301 	add.w	r3, ip, r1
10003ca0:	f04f 3501 	mov.w	r5, #16843009	@ 0x1010101
10003ca4:	eb00 0cc3 	add.w	ip, r0, r3, lsl #3
10003ca8:	f04f 4600 	mov.w	r6, #2147483648	@ 0x80000000
10003cac:	eb00 0ec3 	add.w	lr, r0, r3, lsl #3
10003cb0:	2301      	movs	r3, #1
10003cb2:	f50e 5e86 	add.w	lr, lr, #4288	@ 0x10c0
10003cb6:	1d0c      	adds	r4, r1, #4
10003cb8:	f101 0708 	add.w	r7, r1, #8
10003cbc:	408d      	lsls	r5, r1
10003cbe:	f8ce 6010 	str.w	r6, [lr, #16]
10003cc2:	fa03 f404 	lsl.w	r4, r3, r4
10003cc6:	f8ce 6010 	str.w	r6, [lr, #16]
10003cca:	f002 021f 	and.w	r2, r2, #31
10003cce:	6085      	str	r5, [r0, #8]
10003cd0:	40bb      	lsls	r3, r7
10003cd2:	f500 5000 	add.w	r0, r0, #8192	@ 0x2000
10003cd6:	6004      	str	r4, [r0, #0]
10003cd8:	f10e 0e10 	add.w	lr, lr, #16
10003cdc:	6003      	str	r3, [r0, #0]
10003cde:	2000      	movs	r0, #0
10003ce0:	f8cc 20d8 	str.w	r2, [ip, #216]	@ 0xd8
10003ce4:	bdf0      	pop	{r4, r5, r6, r7, pc}
10003ce6:	f44f 3780 	mov.w	r7, #65536	@ 0x10000
10003cea:	f44f 2640 	mov.w	r6, #786432	@ 0xc0000
10003cee:	f44f 35f8 	mov.w	r5, #126976	@ 0x1f000
10003cf2:	eb01 0441 	add.w	r4, r1, r1, lsl #1
10003cf6:	eb00 04c4 	add.w	r4, r0, r4, lsl #3
10003cfa:	f8c4 70c8 	str.w	r7, [r4, #200]	@ 0xc8
10003cfe:	ea4f 0c41 	mov.w	ip, r1, lsl #1
10003d02:	f8c4 60d0 	str.w	r6, [r4, #208]	@ 0xd0
10003d06:	f8c4 50cc 	str.w	r5, [r4, #204]	@ 0xcc
10003d0a:	f8c4 30dc 	str.w	r3, [r4, #220]	@ 0xdc
10003d0e:	e7c5      	b.n	10003c9c <pio_sm_init+0x34>

10003d10 <memset>:
10003d10:	b570      	push	{r4, r5, r6, lr}
10003d12:	0786      	lsls	r6, r0, #30
10003d14:	d047      	beq.n	10003da6 <memset+0x96>
10003d16:	1e54      	subs	r4, r2, #1
10003d18:	2a00      	cmp	r2, #0
10003d1a:	d03e      	beq.n	10003d9a <memset+0x8a>
10003d1c:	b2ca      	uxtb	r2, r1
10003d1e:	4603      	mov	r3, r0
10003d20:	e001      	b.n	10003d26 <memset+0x16>
10003d22:	3c01      	subs	r4, #1
10003d24:	d339      	bcc.n	10003d9a <memset+0x8a>
10003d26:	f803 2b01 	strb.w	r2, [r3], #1
10003d2a:	079d      	lsls	r5, r3, #30
10003d2c:	d1f9      	bne.n	10003d22 <memset+0x12>
10003d2e:	2c03      	cmp	r4, #3
10003d30:	d92c      	bls.n	10003d8c <memset+0x7c>
10003d32:	b2cd      	uxtb	r5, r1
10003d34:	2c0f      	cmp	r4, #15
10003d36:	eb05 2505 	add.w	r5, r5, r5, lsl #8
10003d3a:	eb05 4505 	add.w	r5, r5, r5, lsl #16
10003d3e:	d935      	bls.n	10003dac <memset+0x9c>
10003d40:	f1a4 0c10 	sub.w	ip, r4, #16
10003d44:	f103 0e10 	add.w	lr, r3, #16
10003d48:	461a      	mov	r2, r3
10003d4a:	f02c 060f 	bic.w	r6, ip, #15
10003d4e:	ea4f 1c1c 	mov.w	ip, ip, lsr #4
10003d52:	44b6      	add	lr, r6
10003d54:	e9c2 5500 	strd	r5, r5, [r2]
10003d58:	e9c2 5502 	strd	r5, r5, [r2, #8]
10003d5c:	3210      	adds	r2, #16
10003d5e:	4572      	cmp	r2, lr
10003d60:	d1f8      	bne.n	10003d54 <memset+0x44>
10003d62:	f10c 0201 	add.w	r2, ip, #1
10003d66:	f014 0f0c 	tst.w	r4, #12
10003d6a:	f004 0c0f 	and.w	ip, r4, #15
10003d6e:	eb03 1202 	add.w	r2, r3, r2, lsl #4
10003d72:	d013      	beq.n	10003d9c <memset+0x8c>
10003d74:	f1ac 0304 	sub.w	r3, ip, #4
10003d78:	f023 0303 	bic.w	r3, r3, #3
10003d7c:	3304      	adds	r3, #4
10003d7e:	4413      	add	r3, r2
10003d80:	f842 5b04 	str.w	r5, [r2], #4
10003d84:	4293      	cmp	r3, r2
10003d86:	d1fb      	bne.n	10003d80 <memset+0x70>
10003d88:	f00c 0403 	and.w	r4, ip, #3
10003d8c:	b12c      	cbz	r4, 10003d9a <memset+0x8a>
10003d8e:	b2c9      	uxtb	r1, r1
10003d90:	441c      	add	r4, r3
10003d92:	f803 1b01 	strb.w	r1, [r3], #1
10003d96:	42a3      	cmp	r3, r4
10003d98:	d1fb      	bne.n	10003d92 <memset+0x82>
10003d9a:	bd70      	pop	{r4, r5, r6, pc}
10003d9c:	4664      	mov	r4, ip
10003d9e:	4613      	mov	r3, r2
10003da0:	2c00      	cmp	r4, #0
10003da2:	d1f4      	bne.n	10003d8e <memset+0x7e>
10003da4:	e7f9      	b.n	10003d9a <memset+0x8a>
10003da6:	4603      	mov	r3, r0
10003da8:	4614      	mov	r4, r2
10003daa:	e7c0      	b.n	10003d2e <memset+0x1e>
10003dac:	461a      	mov	r2, r3
10003dae:	46a4      	mov	ip, r4
10003db0:	e7e0      	b.n	10003d74 <memset+0x64>
10003db2:	bf00      	nop

10003db4 <calloc>:
10003db4:	4b02      	ldr	r3, [pc, #8]	@ (10003dc0 <calloc+0xc>)
10003db6:	460a      	mov	r2, r1
10003db8:	4601      	mov	r1, r0
10003dba:	6818      	ldr	r0, [r3, #0]
10003dbc:	f000 b808 	b.w	10003dd0 <_calloc_r>
10003dc0:	20000ae0 	.word	0x20000ae0

10003dc4 <__errno>:
10003dc4:	4b01      	ldr	r3, [pc, #4]	@ (10003dcc <__errno+0x8>)
10003dc6:	6818      	ldr	r0, [r3, #0]
10003dc8:	4770      	bx	lr
10003dca:	bf00      	nop
10003dcc:	20000ae0 	.word	0x20000ae0

10003dd0 <_calloc_r>:
10003dd0:	b538      	push	{r3, r4, r5, lr}
10003dd2:	fba1 1402 	umull	r1, r4, r1, r2
10003dd6:	bb34      	cbnz	r4, 10003e26 <_calloc_r+0x56>
10003dd8:	f000 f832 	bl	10003e40 <_malloc_r>
10003ddc:	4605      	mov	r5, r0
10003dde:	b330      	cbz	r0, 10003e2e <_calloc_r+0x5e>
10003de0:	f850 2c04 	ldr.w	r2, [r0, #-4]
10003de4:	f022 0203 	bic.w	r2, r2, #3
10003de8:	3a04      	subs	r2, #4
10003dea:	2a24      	cmp	r2, #36	@ 0x24
10003dec:	d80c      	bhi.n	10003e08 <_calloc_r+0x38>
10003dee:	2a13      	cmp	r2, #19
10003df0:	d90f      	bls.n	10003e12 <_calloc_r+0x42>
10003df2:	2a1b      	cmp	r2, #27
10003df4:	e9c0 4400 	strd	r4, r4, [r0]
10003df8:	d912      	bls.n	10003e20 <_calloc_r+0x50>
10003dfa:	2a24      	cmp	r2, #36	@ 0x24
10003dfc:	e9c0 4402 	strd	r4, r4, [r0, #8]
10003e00:	d018      	beq.n	10003e34 <_calloc_r+0x64>
10003e02:	f100 0210 	add.w	r2, r0, #16
10003e06:	e005      	b.n	10003e14 <_calloc_r+0x44>
10003e08:	4621      	mov	r1, r4
10003e0a:	f7ff ff81 	bl	10003d10 <memset>
10003e0e:	4628      	mov	r0, r5
10003e10:	bd38      	pop	{r3, r4, r5, pc}
10003e12:	4602      	mov	r2, r0
10003e14:	2300      	movs	r3, #0
10003e16:	4628      	mov	r0, r5
10003e18:	e9c2 3300 	strd	r3, r3, [r2]
10003e1c:	6093      	str	r3, [r2, #8]
10003e1e:	bd38      	pop	{r3, r4, r5, pc}
10003e20:	f100 0208 	add.w	r2, r0, #8
10003e24:	e7f6      	b.n	10003e14 <_calloc_r+0x44>
10003e26:	f7ff ffcd 	bl	10003dc4 <__errno>
10003e2a:	230c      	movs	r3, #12
10003e2c:	6003      	str	r3, [r0, #0]
10003e2e:	2500      	movs	r5, #0
10003e30:	4628      	mov	r0, r5
10003e32:	bd38      	pop	{r3, r4, r5, pc}
10003e34:	f100 0218 	add.w	r2, r0, #24
10003e38:	e9c0 4404 	strd	r4, r4, [r0, #16]
10003e3c:	e7ea      	b.n	10003e14 <_calloc_r+0x44>
10003e3e:	bf00      	nop

10003e40 <_malloc_r>:
10003e40:	f101 030b 	add.w	r3, r1, #11
10003e44:	2b16      	cmp	r3, #22
10003e46:	e92d 4ff0 	stmdb	sp!, {r4, r5, r6, r7, r8, r9, sl, fp, lr}
10003e4a:	4607      	mov	r7, r0
10003e4c:	b083      	sub	sp, #12
10003e4e:	d823      	bhi.n	10003e98 <_malloc_r+0x58>
10003e50:	2910      	cmp	r1, #16
10003e52:	f200 80af 	bhi.w	10003fb4 <_malloc_r+0x174>
10003e56:	f000 fc83 	bl	10004760 <__malloc_lock>
10003e5a:	2510      	movs	r5, #16
10003e5c:	2318      	movs	r3, #24
10003e5e:	2002      	movs	r0, #2
10003e60:	4ec2      	ldr	r6, [pc, #776]	@ (1000416c <_malloc_r+0x32c>)
10003e62:	4433      	add	r3, r6
10003e64:	685c      	ldr	r4, [r3, #4]
10003e66:	f1a3 0208 	sub.w	r2, r3, #8
10003e6a:	4294      	cmp	r4, r2
10003e6c:	f000 8178 	beq.w	10004160 <_malloc_r+0x320>
10003e70:	6863      	ldr	r3, [r4, #4]
10003e72:	4638      	mov	r0, r7
10003e74:	f023 0303 	bic.w	r3, r3, #3
10003e78:	e9d4 1202 	ldrd	r1, r2, [r4, #8]
10003e7c:	4423      	add	r3, r4
10003e7e:	60ca      	str	r2, [r1, #12]
10003e80:	6091      	str	r1, [r2, #8]
10003e82:	685a      	ldr	r2, [r3, #4]
10003e84:	3408      	adds	r4, #8
10003e86:	f042 0201 	orr.w	r2, r2, #1
10003e8a:	605a      	str	r2, [r3, #4]
10003e8c:	f000 fc6a 	bl	10004764 <__malloc_unlock>
10003e90:	4620      	mov	r0, r4
10003e92:	b003      	add	sp, #12
10003e94:	e8bd 8ff0 	ldmia.w	sp!, {r4, r5, r6, r7, r8, r9, sl, fp, pc}
10003e98:	2b00      	cmp	r3, #0
10003e9a:	f023 0507 	bic.w	r5, r3, #7
10003e9e:	f2c0 8089 	blt.w	10003fb4 <_malloc_r+0x174>
10003ea2:	42a9      	cmp	r1, r5
10003ea4:	f200 8086 	bhi.w	10003fb4 <_malloc_r+0x174>
10003ea8:	f000 fc5a 	bl	10004760 <__malloc_lock>
10003eac:	f5b5 7ffc 	cmp.w	r5, #504	@ 0x1f8
10003eb0:	f0c0 81b2 	bcc.w	10004218 <_malloc_r+0x3d8>
10003eb4:	0a6b      	lsrs	r3, r5, #9
10003eb6:	f000 8081 	beq.w	10003fbc <_malloc_r+0x17c>
10003eba:	2b04      	cmp	r3, #4
10003ebc:	f200 817c 	bhi.w	100041b8 <_malloc_r+0x378>
10003ec0:	09ab      	lsrs	r3, r5, #6
10003ec2:	f103 0039 	add.w	r0, r3, #57	@ 0x39
10003ec6:	f103 0e38 	add.w	lr, r3, #56	@ 0x38
10003eca:	00c3      	lsls	r3, r0, #3
10003ecc:	4ea7      	ldr	r6, [pc, #668]	@ (1000416c <_malloc_r+0x32c>)
10003ece:	4433      	add	r3, r6
10003ed0:	f1a3 0c08 	sub.w	ip, r3, #8
10003ed4:	685c      	ldr	r4, [r3, #4]
10003ed6:	45a4      	cmp	ip, r4
10003ed8:	d107      	bne.n	10003eea <_malloc_r+0xaa>
10003eda:	e00d      	b.n	10003ef8 <_malloc_r+0xb8>
10003edc:	2a00      	cmp	r2, #0
10003ede:	68e1      	ldr	r1, [r4, #12]
10003ee0:	f280 8138 	bge.w	10004154 <_malloc_r+0x314>
10003ee4:	458c      	cmp	ip, r1
10003ee6:	460c      	mov	r4, r1
10003ee8:	d006      	beq.n	10003ef8 <_malloc_r+0xb8>
10003eea:	6863      	ldr	r3, [r4, #4]
10003eec:	f023 0303 	bic.w	r3, r3, #3
10003ef0:	1b5a      	subs	r2, r3, r5
10003ef2:	2a0f      	cmp	r2, #15
10003ef4:	ddf2      	ble.n	10003edc <_malloc_r+0x9c>
10003ef6:	4670      	mov	r0, lr
10003ef8:	f8df 8274 	ldr.w	r8, [pc, #628]	@ 10004170 <_malloc_r+0x330>
10003efc:	6934      	ldr	r4, [r6, #16]
10003efe:	4544      	cmp	r4, r8
10003f00:	f000 80ea 	beq.w	100040d8 <_malloc_r+0x298>
10003f04:	6863      	ldr	r3, [r4, #4]
10003f06:	f023 0c03 	bic.w	ip, r3, #3
10003f0a:	ebac 0305 	sub.w	r3, ip, r5
10003f0e:	2b0f      	cmp	r3, #15
10003f10:	f300 8192 	bgt.w	10004238 <_malloc_r+0x3f8>
10003f14:	2b00      	cmp	r3, #0
10003f16:	e9c6 8804 	strd	r8, r8, [r6, #16]
10003f1a:	f280 8181 	bge.w	10004220 <_malloc_r+0x3e0>
10003f1e:	f5bc 7f00 	cmp.w	ip, #512	@ 0x200
10003f22:	f8d6 e004 	ldr.w	lr, [r6, #4]
10003f26:	f080 8127 	bcs.w	10004178 <_malloc_r+0x338>
10003f2a:	ea4f 03dc 	mov.w	r3, ip, lsr #3
10003f2e:	2201      	movs	r2, #1
10003f30:	ea4f 1c5c 	mov.w	ip, ip, lsr #5
10003f34:	3301      	adds	r3, #1
10003f36:	fa02 f20c 	lsl.w	r2, r2, ip
10003f3a:	f856 1033 	ldr.w	r1, [r6, r3, lsl #3]
10003f3e:	ea4e 0e02 	orr.w	lr, lr, r2
10003f42:	eb06 02c3 	add.w	r2, r6, r3, lsl #3
10003f46:	3a08      	subs	r2, #8
10003f48:	f8c6 e004 	str.w	lr, [r6, #4]
10003f4c:	e9c4 1202 	strd	r1, r2, [r4, #8]
10003f50:	f846 4033 	str.w	r4, [r6, r3, lsl #3]
10003f54:	60cc      	str	r4, [r1, #12]
10003f56:	1083      	asrs	r3, r0, #2
10003f58:	f04f 0c01 	mov.w	ip, #1
10003f5c:	fa0c fc03 	lsl.w	ip, ip, r3
10003f60:	45f4      	cmp	ip, lr
10003f62:	d831      	bhi.n	10003fc8 <_malloc_r+0x188>
10003f64:	ea1c 0f0e 	tst.w	ip, lr
10003f68:	d107      	bne.n	10003f7a <_malloc_r+0x13a>
10003f6a:	f020 0003 	bic.w	r0, r0, #3
10003f6e:	ea4f 0c4c 	mov.w	ip, ip, lsl #1
10003f72:	3004      	adds	r0, #4
10003f74:	ea1c 0f0e 	tst.w	ip, lr
10003f78:	d0f9      	beq.n	10003f6e <_malloc_r+0x12e>
10003f7a:	eb06 0ac0 	add.w	sl, r6, r0, lsl #3
10003f7e:	4681      	mov	r9, r0
10003f80:	46d6      	mov	lr, sl
10003f82:	f8de 300c 	ldr.w	r3, [lr, #12]
10003f86:	e00b      	b.n	10003fa0 <_malloc_r+0x160>
10003f88:	685a      	ldr	r2, [r3, #4]
10003f8a:	461c      	mov	r4, r3
10003f8c:	68db      	ldr	r3, [r3, #12]
10003f8e:	f022 0203 	bic.w	r2, r2, #3
10003f92:	1b51      	subs	r1, r2, r5
10003f94:	290f      	cmp	r1, #15
10003f96:	f300 811b 	bgt.w	100041d0 <_malloc_r+0x390>
10003f9a:	2900      	cmp	r1, #0
10003f9c:	f280 812f 	bge.w	100041fe <_malloc_r+0x3be>
10003fa0:	459e      	cmp	lr, r3
10003fa2:	d1f1      	bne.n	10003f88 <_malloc_r+0x148>
10003fa4:	f109 0901 	add.w	r9, r9, #1
10003fa8:	f10e 0e08 	add.w	lr, lr, #8
10003fac:	f019 0f03 	tst.w	r9, #3
10003fb0:	d1e7      	bne.n	10003f82 <_malloc_r+0x142>
10003fb2:	e165      	b.n	10004280 <_malloc_r+0x440>
10003fb4:	230c      	movs	r3, #12
10003fb6:	603b      	str	r3, [r7, #0]
10003fb8:	2400      	movs	r4, #0
10003fba:	e769      	b.n	10003e90 <_malloc_r+0x50>
10003fbc:	f44f 7300 	mov.w	r3, #512	@ 0x200
10003fc0:	2040      	movs	r0, #64	@ 0x40
10003fc2:	f04f 0e3f 	mov.w	lr, #63	@ 0x3f
10003fc6:	e781      	b.n	10003ecc <_malloc_r+0x8c>
10003fc8:	68b4      	ldr	r4, [r6, #8]
10003fca:	6863      	ldr	r3, [r4, #4]
10003fcc:	f023 0903 	bic.w	r9, r3, #3
10003fd0:	eba9 0305 	sub.w	r3, r9, r5
10003fd4:	2b0f      	cmp	r3, #15
10003fd6:	dd02      	ble.n	10003fde <_malloc_r+0x19e>
10003fd8:	45a9      	cmp	r9, r5
10003fda:	f080 80aa 	bcs.w	10004132 <_malloc_r+0x2f2>
10003fde:	f8df b194 	ldr.w	fp, [pc, #404]	@ 10004174 <_malloc_r+0x334>
10003fe2:	eb04 0309 	add.w	r3, r4, r9
10003fe6:	2008      	movs	r0, #8
10003fe8:	f8db 2000 	ldr.w	r2, [fp]
10003fec:	9300      	str	r3, [sp, #0]
10003fee:	3210      	adds	r2, #16
10003ff0:	eb02 0805 	add.w	r8, r2, r5
10003ff4:	f000 fba6 	bl	10004744 <sysconf>
10003ff8:	f8d6 1408 	ldr.w	r1, [r6, #1032]	@ 0x408
10003ffc:	4602      	mov	r2, r0
10003ffe:	3101      	adds	r1, #1
10004000:	d005      	beq.n	1000400e <_malloc_r+0x1ce>
10004002:	f108 38ff 	add.w	r8, r8, #4294967295	@ 0xffffffff
10004006:	4241      	negs	r1, r0
10004008:	4480      	add	r8, r0
1000400a:	ea01 0808 	and.w	r8, r1, r8
1000400e:	4641      	mov	r1, r8
10004010:	4638      	mov	r0, r7
10004012:	9201      	str	r2, [sp, #4]
10004014:	f000 fbdc 	bl	100047d0 <_sbrk_r>
10004018:	f1b0 3fff 	cmp.w	r0, #4294967295	@ 0xffffffff
1000401c:	4682      	mov	sl, r0
1000401e:	9a01      	ldr	r2, [sp, #4]
10004020:	d07c      	beq.n	1000411c <_malloc_r+0x2dc>
10004022:	9b00      	ldr	r3, [sp, #0]
10004024:	4283      	cmp	r3, r0
10004026:	d95a      	bls.n	100040de <_malloc_r+0x29e>
10004028:	42b4      	cmp	r4, r6
1000402a:	d177      	bne.n	1000411c <_malloc_r+0x2dc>
1000402c:	f8db 0004 	ldr.w	r0, [fp, #4]
10004030:	f102 3cff 	add.w	ip, r2, #4294967295	@ 0xffffffff
10004034:	4440      	add	r0, r8
10004036:	f8cb 0004 	str.w	r0, [fp, #4]
1000403a:	f8d6 1408 	ldr.w	r1, [r6, #1032]	@ 0x408
1000403e:	3101      	adds	r1, #1
10004040:	f000 816b 	beq.w	1000431a <_malloc_r+0x4da>
10004044:	9b00      	ldr	r3, [sp, #0]
10004046:	ebaa 0103 	sub.w	r1, sl, r3
1000404a:	4401      	add	r1, r0
1000404c:	f8cb 1004 	str.w	r1, [fp, #4]
10004050:	f01a 0307 	ands.w	r3, sl, #7
10004054:	9300      	str	r3, [sp, #0]
10004056:	f000 813d 	beq.w	100042d4 <_malloc_r+0x494>
1000405a:	f1c3 0108 	rsb	r1, r3, #8
1000405e:	4638      	mov	r0, r7
10004060:	448a      	add	sl, r1
10004062:	440a      	add	r2, r1
10004064:	44d0      	add	r8, sl
10004066:	ea08 010c 	and.w	r1, r8, ip
1000406a:	1a52      	subs	r2, r2, r1
1000406c:	ea02 010c 	and.w	r1, r2, ip
10004070:	9101      	str	r1, [sp, #4]
10004072:	f000 fbad 	bl	100047d0 <_sbrk_r>
10004076:	1c42      	adds	r2, r0, #1
10004078:	f000 8167 	beq.w	1000434a <_malloc_r+0x50a>
1000407c:	eba0 000a 	sub.w	r0, r0, sl
10004080:	9901      	ldr	r1, [sp, #4]
10004082:	eb00 0801 	add.w	r8, r0, r1
10004086:	f048 0201 	orr.w	r2, r8, #1
1000408a:	f8c6 a008 	str.w	sl, [r6, #8]
1000408e:	42b4      	cmp	r4, r6
10004090:	f8ca 2004 	str.w	r2, [sl, #4]
10004094:	f8db 2004 	ldr.w	r2, [fp, #4]
10004098:	4411      	add	r1, r2
1000409a:	f8cb 1004 	str.w	r1, [fp, #4]
1000409e:	d031      	beq.n	10004104 <_malloc_r+0x2c4>
100040a0:	f1b9 0f0f 	cmp.w	r9, #15
100040a4:	f240 8105 	bls.w	100042b2 <_malloc_r+0x472>
100040a8:	6860      	ldr	r0, [r4, #4]
100040aa:	f1a9 020c 	sub.w	r2, r9, #12
100040ae:	2305      	movs	r3, #5
100040b0:	f022 0207 	bic.w	r2, r2, #7
100040b4:	f000 0001 	and.w	r0, r0, #1
100040b8:	4310      	orrs	r0, r2
100040ba:	2a0f      	cmp	r2, #15
100040bc:	6060      	str	r0, [r4, #4]
100040be:	eb04 0002 	add.w	r0, r4, r2
100040c2:	e9c0 3301 	strd	r3, r3, [r0, #4]
100040c6:	d91d      	bls.n	10004104 <_malloc_r+0x2c4>
100040c8:	f104 0108 	add.w	r1, r4, #8
100040cc:	4638      	mov	r0, r7
100040ce:	f000 f9b7 	bl	10004440 <_free_r>
100040d2:	f8db 1004 	ldr.w	r1, [fp, #4]
100040d6:	e015      	b.n	10004104 <_malloc_r+0x2c4>
100040d8:	f8d6 e004 	ldr.w	lr, [r6, #4]
100040dc:	e73b      	b.n	10003f56 <_malloc_r+0x116>
100040de:	f8db 1004 	ldr.w	r1, [fp, #4]
100040e2:	f102 3cff 	add.w	ip, r2, #4294967295	@ 0xffffffff
100040e6:	4441      	add	r1, r8
100040e8:	4608      	mov	r0, r1
100040ea:	f8cb 1004 	str.w	r1, [fp, #4]
100040ee:	d1a4      	bne.n	1000403a <_malloc_r+0x1fa>
100040f0:	9b00      	ldr	r3, [sp, #0]
100040f2:	ea13 0f0c 	tst.w	r3, ip
100040f6:	d1a0      	bne.n	1000403a <_malloc_r+0x1fa>
100040f8:	eb09 0208 	add.w	r2, r9, r8
100040fc:	68b0      	ldr	r0, [r6, #8]
100040fe:	f042 0201 	orr.w	r2, r2, #1
10004102:	6042      	str	r2, [r0, #4]
10004104:	f8db 202c 	ldr.w	r2, [fp, #44]	@ 0x2c
10004108:	428a      	cmp	r2, r1
1000410a:	f8db 2030 	ldr.w	r2, [fp, #48]	@ 0x30
1000410e:	bf38      	it	cc
10004110:	f8cb 102c 	strcc.w	r1, [fp, #44]	@ 0x2c
10004114:	428a      	cmp	r2, r1
10004116:	bf38      	it	cc
10004118:	f8cb 1030 	strcc.w	r1, [fp, #48]	@ 0x30
1000411c:	68b4      	ldr	r4, [r6, #8]
1000411e:	6862      	ldr	r2, [r4, #4]
10004120:	f022 0203 	bic.w	r2, r2, #3
10004124:	1b53      	subs	r3, r2, r5
10004126:	2b0f      	cmp	r3, #15
10004128:	f340 80c6 	ble.w	100042b8 <_malloc_r+0x478>
1000412c:	4295      	cmp	r5, r2
1000412e:	f200 80c3 	bhi.w	100042b8 <_malloc_r+0x478>
10004132:	1962      	adds	r2, r4, r5
10004134:	f045 0501 	orr.w	r5, r5, #1
10004138:	f043 0301 	orr.w	r3, r3, #1
1000413c:	3408      	adds	r4, #8
1000413e:	f844 5c04 	str.w	r5, [r4, #-4]
10004142:	4638      	mov	r0, r7
10004144:	60b2      	str	r2, [r6, #8]
10004146:	6053      	str	r3, [r2, #4]
10004148:	f000 fb0c 	bl	10004764 <__malloc_unlock>
1000414c:	4620      	mov	r0, r4
1000414e:	b003      	add	sp, #12
10004150:	e8bd 8ff0 	ldmia.w	sp!, {r4, r5, r6, r7, r8, r9, sl, fp, pc}
10004154:	68a2      	ldr	r2, [r4, #8]
10004156:	4423      	add	r3, r4
10004158:	4638      	mov	r0, r7
1000415a:	60d1      	str	r1, [r2, #12]
1000415c:	608a      	str	r2, [r1, #8]
1000415e:	e690      	b.n	10003e82 <_malloc_r+0x42>
10004160:	68dc      	ldr	r4, [r3, #12]
10004162:	42a3      	cmp	r3, r4
10004164:	f47f ae84 	bne.w	10003e70 <_malloc_r+0x30>
10004168:	3002      	adds	r0, #2
1000416a:	e6c5      	b.n	10003ef8 <_malloc_r+0xb8>
1000416c:	20000c08 	.word	0x20000c08
10004170:	20000c10 	.word	0x20000c10
10004174:	20001478 	.word	0x20001478
10004178:	f5bc 6f20 	cmp.w	ip, #2560	@ 0xa00
1000417c:	ea4f 225c 	mov.w	r2, ip, lsr #9
10004180:	d36c      	bcc.n	1000425c <_malloc_r+0x41c>
10004182:	2a14      	cmp	r2, #20
10004184:	f200 80b6 	bhi.w	100042f4 <_malloc_r+0x4b4>
10004188:	f102 035c 	add.w	r3, r2, #92	@ 0x5c
1000418c:	325b      	adds	r2, #91	@ 0x5b
1000418e:	00db      	lsls	r3, r3, #3
10004190:	18f1      	adds	r1, r6, r3
10004192:	58f3      	ldr	r3, [r6, r3]
10004194:	3908      	subs	r1, #8
10004196:	4299      	cmp	r1, r3
10004198:	d103      	bne.n	100041a2 <_malloc_r+0x362>
1000419a:	e091      	b.n	100042c0 <_malloc_r+0x480>
1000419c:	689b      	ldr	r3, [r3, #8]
1000419e:	4299      	cmp	r1, r3
100041a0:	d004      	beq.n	100041ac <_malloc_r+0x36c>
100041a2:	685a      	ldr	r2, [r3, #4]
100041a4:	f022 0203 	bic.w	r2, r2, #3
100041a8:	4562      	cmp	r2, ip
100041aa:	d8f7      	bhi.n	1000419c <_malloc_r+0x35c>
100041ac:	68d9      	ldr	r1, [r3, #12]
100041ae:	e9c4 3102 	strd	r3, r1, [r4, #8]
100041b2:	608c      	str	r4, [r1, #8]
100041b4:	60dc      	str	r4, [r3, #12]
100041b6:	e6ce      	b.n	10003f56 <_malloc_r+0x116>
100041b8:	2b14      	cmp	r3, #20
100041ba:	d956      	bls.n	1000426a <_malloc_r+0x42a>
100041bc:	2b54      	cmp	r3, #84	@ 0x54
100041be:	f200 80a2 	bhi.w	10004306 <_malloc_r+0x4c6>
100041c2:	0b2b      	lsrs	r3, r5, #12
100041c4:	f103 006f 	add.w	r0, r3, #111	@ 0x6f
100041c8:	f103 0e6e 	add.w	lr, r3, #110	@ 0x6e
100041cc:	00c3      	lsls	r3, r0, #3
100041ce:	e67d      	b.n	10003ecc <_malloc_r+0x8c>
100041d0:	f8d4 c008 	ldr.w	ip, [r4, #8]
100041d4:	4638      	mov	r0, r7
100041d6:	1967      	adds	r7, r4, r5
100041d8:	f045 0501 	orr.w	r5, r5, #1
100041dc:	6065      	str	r5, [r4, #4]
100041de:	f8cc 300c 	str.w	r3, [ip, #12]
100041e2:	f8c3 c008 	str.w	ip, [r3, #8]
100041e6:	f041 0301 	orr.w	r3, r1, #1
100041ea:	e9c6 7704 	strd	r7, r7, [r6, #16]
100041ee:	e9c7 8802 	strd	r8, r8, [r7, #8]
100041f2:	607b      	str	r3, [r7, #4]
100041f4:	50a1      	str	r1, [r4, r2]
100041f6:	3408      	adds	r4, #8
100041f8:	f000 fab4 	bl	10004764 <__malloc_unlock>
100041fc:	e648      	b.n	10003e90 <_malloc_r+0x50>
100041fe:	4422      	add	r2, r4
10004200:	4638      	mov	r0, r7
10004202:	6851      	ldr	r1, [r2, #4]
10004204:	f041 0101 	orr.w	r1, r1, #1
10004208:	6051      	str	r1, [r2, #4]
1000420a:	f854 2f08 	ldr.w	r2, [r4, #8]!
1000420e:	60d3      	str	r3, [r2, #12]
10004210:	609a      	str	r2, [r3, #8]
10004212:	f000 faa7 	bl	10004764 <__malloc_unlock>
10004216:	e63b      	b.n	10003e90 <_malloc_r+0x50>
10004218:	08e8      	lsrs	r0, r5, #3
1000421a:	f105 0308 	add.w	r3, r5, #8
1000421e:	e61f      	b.n	10003e60 <_malloc_r+0x20>
10004220:	44a4      	add	ip, r4
10004222:	4638      	mov	r0, r7
10004224:	3408      	adds	r4, #8
10004226:	f8dc 3004 	ldr.w	r3, [ip, #4]
1000422a:	f043 0301 	orr.w	r3, r3, #1
1000422e:	f8cc 3004 	str.w	r3, [ip, #4]
10004232:	f000 fa97 	bl	10004764 <__malloc_unlock>
10004236:	e62b      	b.n	10003e90 <_malloc_r+0x50>
10004238:	1962      	adds	r2, r4, r5
1000423a:	f043 0101 	orr.w	r1, r3, #1
1000423e:	f045 0501 	orr.w	r5, r5, #1
10004242:	4638      	mov	r0, r7
10004244:	6065      	str	r5, [r4, #4]
10004246:	e9c6 2204 	strd	r2, r2, [r6, #16]
1000424a:	e9c2 8802 	strd	r8, r8, [r2, #8]
1000424e:	6051      	str	r1, [r2, #4]
10004250:	f844 300c 	str.w	r3, [r4, ip]
10004254:	3408      	adds	r4, #8
10004256:	f000 fa85 	bl	10004764 <__malloc_unlock>
1000425a:	e619      	b.n	10003e90 <_malloc_r+0x50>
1000425c:	ea4f 129c 	mov.w	r2, ip, lsr #6
10004260:	f102 0339 	add.w	r3, r2, #57	@ 0x39
10004264:	3238      	adds	r2, #56	@ 0x38
10004266:	00db      	lsls	r3, r3, #3
10004268:	e792      	b.n	10004190 <_malloc_r+0x350>
1000426a:	f103 005c 	add.w	r0, r3, #92	@ 0x5c
1000426e:	f103 0e5b 	add.w	lr, r3, #91	@ 0x5b
10004272:	00c3      	lsls	r3, r0, #3
10004274:	e62a      	b.n	10003ecc <_malloc_r+0x8c>
10004276:	f85a 3908 	ldr.w	r3, [sl], #-8
1000427a:	4553      	cmp	r3, sl
1000427c:	f040 8082 	bne.w	10004384 <_malloc_r+0x544>
10004280:	f010 0f03 	tst.w	r0, #3
10004284:	f100 30ff 	add.w	r0, r0, #4294967295	@ 0xffffffff
10004288:	d1f5      	bne.n	10004276 <_malloc_r+0x436>
1000428a:	6873      	ldr	r3, [r6, #4]
1000428c:	ea23 030c 	bic.w	r3, r3, ip
10004290:	6073      	str	r3, [r6, #4]
10004292:	ea4f 0c4c 	mov.w	ip, ip, lsl #1
10004296:	f10c 32ff 	add.w	r2, ip, #4294967295	@ 0xffffffff
1000429a:	429a      	cmp	r2, r3
1000429c:	d304      	bcc.n	100042a8 <_malloc_r+0x468>
1000429e:	e693      	b.n	10003fc8 <_malloc_r+0x188>
100042a0:	ea4f 0c4c 	mov.w	ip, ip, lsl #1
100042a4:	f109 0904 	add.w	r9, r9, #4
100042a8:	ea1c 0f03 	tst.w	ip, r3
100042ac:	d0f8      	beq.n	100042a0 <_malloc_r+0x460>
100042ae:	4648      	mov	r0, r9
100042b0:	e663      	b.n	10003f7a <_malloc_r+0x13a>
100042b2:	2301      	movs	r3, #1
100042b4:	f8ca 3004 	str.w	r3, [sl, #4]
100042b8:	4638      	mov	r0, r7
100042ba:	f000 fa53 	bl	10004764 <__malloc_unlock>
100042be:	e67b      	b.n	10003fb8 <_malloc_r+0x178>
100042c0:	1092      	asrs	r2, r2, #2
100042c2:	f04f 0c01 	mov.w	ip, #1
100042c6:	fa0c f202 	lsl.w	r2, ip, r2
100042ca:	ea4e 0e02 	orr.w	lr, lr, r2
100042ce:	f8c6 e004 	str.w	lr, [r6, #4]
100042d2:	e76c      	b.n	100041ae <_malloc_r+0x36e>
100042d4:	eb0a 0108 	add.w	r1, sl, r8
100042d8:	4638      	mov	r0, r7
100042da:	ea01 010c 	and.w	r1, r1, ip
100042de:	1a52      	subs	r2, r2, r1
100042e0:	ea02 010c 	and.w	r1, r2, ip
100042e4:	9101      	str	r1, [sp, #4]
100042e6:	f000 fa73 	bl	100047d0 <_sbrk_r>
100042ea:	1c43      	adds	r3, r0, #1
100042ec:	f47f aec6 	bne.w	1000407c <_malloc_r+0x23c>
100042f0:	9900      	ldr	r1, [sp, #0]
100042f2:	e6c8      	b.n	10004086 <_malloc_r+0x246>
100042f4:	2a54      	cmp	r2, #84	@ 0x54
100042f6:	d813      	bhi.n	10004320 <_malloc_r+0x4e0>
100042f8:	ea4f 321c 	mov.w	r2, ip, lsr #12
100042fc:	f102 036f 	add.w	r3, r2, #111	@ 0x6f
10004300:	326e      	adds	r2, #110	@ 0x6e
10004302:	00db      	lsls	r3, r3, #3
10004304:	e744      	b.n	10004190 <_malloc_r+0x350>
10004306:	f5b3 7faa 	cmp.w	r3, #340	@ 0x154
1000430a:	d813      	bhi.n	10004334 <_malloc_r+0x4f4>
1000430c:	0beb      	lsrs	r3, r5, #15
1000430e:	f103 0078 	add.w	r0, r3, #120	@ 0x78
10004312:	f103 0e77 	add.w	lr, r3, #119	@ 0x77
10004316:	00c3      	lsls	r3, r0, #3
10004318:	e5d8      	b.n	10003ecc <_malloc_r+0x8c>
1000431a:	f8c6 a408 	str.w	sl, [r6, #1032]	@ 0x408
1000431e:	e697      	b.n	10004050 <_malloc_r+0x210>
10004320:	f5b2 7faa 	cmp.w	r2, #340	@ 0x154
10004324:	d819      	bhi.n	1000435a <_malloc_r+0x51a>
10004326:	ea4f 32dc 	mov.w	r2, ip, lsr #15
1000432a:	f102 0378 	add.w	r3, r2, #120	@ 0x78
1000432e:	3277      	adds	r2, #119	@ 0x77
10004330:	00db      	lsls	r3, r3, #3
10004332:	e72d      	b.n	10004190 <_malloc_r+0x350>
10004334:	f240 5254 	movw	r2, #1364	@ 0x554
10004338:	4293      	cmp	r3, r2
1000433a:	d819      	bhi.n	10004370 <_malloc_r+0x530>
1000433c:	0cab      	lsrs	r3, r5, #18
1000433e:	f103 007d 	add.w	r0, r3, #125	@ 0x7d
10004342:	f103 0e7c 	add.w	lr, r3, #124	@ 0x7c
10004346:	00c3      	lsls	r3, r0, #3
10004348:	e5c0      	b.n	10003ecc <_malloc_r+0x8c>
1000434a:	9b00      	ldr	r3, [sp, #0]
1000434c:	2100      	movs	r1, #0
1000434e:	f1a3 0208 	sub.w	r2, r3, #8
10004352:	4490      	add	r8, r2
10004354:	eba8 080a 	sub.w	r8, r8, sl
10004358:	e695      	b.n	10004086 <_malloc_r+0x246>
1000435a:	f240 5354 	movw	r3, #1364	@ 0x554
1000435e:	429a      	cmp	r2, r3
10004360:	d80c      	bhi.n	1000437c <_malloc_r+0x53c>
10004362:	ea4f 429c 	mov.w	r2, ip, lsr #18
10004366:	f102 037d 	add.w	r3, r2, #125	@ 0x7d
1000436a:	327c      	adds	r2, #124	@ 0x7c
1000436c:	00db      	lsls	r3, r3, #3
1000436e:	e70f      	b.n	10004190 <_malloc_r+0x350>
10004370:	f44f 737e 	mov.w	r3, #1016	@ 0x3f8
10004374:	207f      	movs	r0, #127	@ 0x7f
10004376:	f04f 0e7e 	mov.w	lr, #126	@ 0x7e
1000437a:	e5a7      	b.n	10003ecc <_malloc_r+0x8c>
1000437c:	f44f 737e 	mov.w	r3, #1016	@ 0x3f8
10004380:	227e      	movs	r2, #126	@ 0x7e
10004382:	e705      	b.n	10004190 <_malloc_r+0x350>
10004384:	6873      	ldr	r3, [r6, #4]
10004386:	e784      	b.n	10004292 <_malloc_r+0x452>

10004388 <_malloc_trim_r>:
10004388:	e92d 43f8 	stmdb	sp!, {r3, r4, r5, r6, r7, r8, r9, lr}
1000438c:	4606      	mov	r6, r0
1000438e:	f8df 80ac 	ldr.w	r8, [pc, #172]	@ 1000443c <_malloc_trim_r+0xb4>
10004392:	2008      	movs	r0, #8
10004394:	4689      	mov	r9, r1
10004396:	f000 f9d5 	bl	10004744 <sysconf>
1000439a:	4605      	mov	r5, r0
1000439c:	4630      	mov	r0, r6
1000439e:	f000 f9df 	bl	10004760 <__malloc_lock>
100043a2:	f8d8 3008 	ldr.w	r3, [r8, #8]
100043a6:	685f      	ldr	r7, [r3, #4]
100043a8:	f027 0703 	bic.w	r7, r7, #3
100043ac:	f1a7 0411 	sub.w	r4, r7, #17
100043b0:	eba4 0409 	sub.w	r4, r4, r9
100043b4:	442c      	add	r4, r5
100043b6:	fbb4 f4f5 	udiv	r4, r4, r5
100043ba:	3c01      	subs	r4, #1
100043bc:	fb05 f404 	mul.w	r4, r5, r4
100043c0:	42a5      	cmp	r5, r4
100043c2:	dc08      	bgt.n	100043d6 <_malloc_trim_r+0x4e>
100043c4:	2100      	movs	r1, #0
100043c6:	4630      	mov	r0, r6
100043c8:	f000 fa02 	bl	100047d0 <_sbrk_r>
100043cc:	f8d8 3008 	ldr.w	r3, [r8, #8]
100043d0:	443b      	add	r3, r7
100043d2:	4298      	cmp	r0, r3
100043d4:	d005      	beq.n	100043e2 <_malloc_trim_r+0x5a>
100043d6:	4630      	mov	r0, r6
100043d8:	f000 f9c4 	bl	10004764 <__malloc_unlock>
100043dc:	2000      	movs	r0, #0
100043de:	e8bd 83f8 	ldmia.w	sp!, {r3, r4, r5, r6, r7, r8, r9, pc}
100043e2:	4261      	negs	r1, r4
100043e4:	4630      	mov	r0, r6
100043e6:	f000 f9f3 	bl	100047d0 <_sbrk_r>
100043ea:	3001      	adds	r0, #1
100043ec:	d00f      	beq.n	1000440e <_malloc_trim_r+0x86>
100043ee:	1b3f      	subs	r7, r7, r4
100043f0:	4a10      	ldr	r2, [pc, #64]	@ (10004434 <_malloc_trim_r+0xac>)
100043f2:	f8d8 3008 	ldr.w	r3, [r8, #8]
100043f6:	4630      	mov	r0, r6
100043f8:	f047 0701 	orr.w	r7, r7, #1
100043fc:	605f      	str	r7, [r3, #4]
100043fe:	6813      	ldr	r3, [r2, #0]
10004400:	1b1b      	subs	r3, r3, r4
10004402:	6013      	str	r3, [r2, #0]
10004404:	f000 f9ae 	bl	10004764 <__malloc_unlock>
10004408:	2001      	movs	r0, #1
1000440a:	e8bd 83f8 	ldmia.w	sp!, {r3, r4, r5, r6, r7, r8, r9, pc}
1000440e:	2100      	movs	r1, #0
10004410:	4630      	mov	r0, r6
10004412:	f000 f9dd 	bl	100047d0 <_sbrk_r>
10004416:	f8d8 2008 	ldr.w	r2, [r8, #8]
1000441a:	1a83      	subs	r3, r0, r2
1000441c:	2b0f      	cmp	r3, #15
1000441e:	ddda      	ble.n	100043d6 <_malloc_trim_r+0x4e>
10004420:	f043 0301 	orr.w	r3, r3, #1
10004424:	4903      	ldr	r1, [pc, #12]	@ (10004434 <_malloc_trim_r+0xac>)
10004426:	6053      	str	r3, [r2, #4]
10004428:	4b03      	ldr	r3, [pc, #12]	@ (10004438 <_malloc_trim_r+0xb0>)
1000442a:	681b      	ldr	r3, [r3, #0]
1000442c:	1ac0      	subs	r0, r0, r3
1000442e:	6008      	str	r0, [r1, #0]
10004430:	e7d1      	b.n	100043d6 <_malloc_trim_r+0x4e>
10004432:	bf00      	nop
10004434:	2000147c 	.word	0x2000147c
10004438:	20001010 	.word	0x20001010
1000443c:	20000c08 	.word	0x20000c08

10004440 <_free_r>:
10004440:	2900      	cmp	r1, #0
10004442:	d07c      	beq.n	1000453e <_free_r+0xfe>
10004444:	e92d 41f0 	stmdb	sp!, {r4, r5, r6, r7, r8, lr}
10004448:	460c      	mov	r4, r1
1000444a:	4680      	mov	r8, r0
1000444c:	f000 f988 	bl	10004760 <__malloc_lock>
10004450:	4f76      	ldr	r7, [pc, #472]	@ (1000462c <_free_r+0x1ec>)
10004452:	f854 3c04 	ldr.w	r3, [r4, #-4]
10004456:	f1a4 0508 	sub.w	r5, r4, #8
1000445a:	68be      	ldr	r6, [r7, #8]
1000445c:	f023 0101 	bic.w	r1, r3, #1
10004460:	1868      	adds	r0, r5, r1
10004462:	6842      	ldr	r2, [r0, #4]
10004464:	4286      	cmp	r6, r0
10004466:	f022 0203 	bic.w	r2, r2, #3
1000446a:	f000 8083 	beq.w	10004574 <_free_r+0x134>
1000446e:	07de      	lsls	r6, r3, #31
10004470:	eb00 0c02 	add.w	ip, r0, r2
10004474:	6042      	str	r2, [r0, #4]
10004476:	d433      	bmi.n	100044e0 <_free_r+0xa0>
10004478:	f854 4c08 	ldr.w	r4, [r4, #-8]
1000447c:	f8dc 3004 	ldr.w	r3, [ip, #4]
10004480:	f107 0c08 	add.w	ip, r7, #8
10004484:	1b2d      	subs	r5, r5, r4
10004486:	4421      	add	r1, r4
10004488:	f003 0301 	and.w	r3, r3, #1
1000448c:	68ac      	ldr	r4, [r5, #8]
1000448e:	4564      	cmp	r4, ip
10004490:	d064      	beq.n	1000455c <_free_r+0x11c>
10004492:	f8d5 e00c 	ldr.w	lr, [r5, #12]
10004496:	f8c4 e00c 	str.w	lr, [r4, #12]
1000449a:	f8ce 4008 	str.w	r4, [lr, #8]
1000449e:	2b00      	cmp	r3, #0
100044a0:	f000 8081 	beq.w	100045a6 <_free_r+0x166>
100044a4:	f041 0301 	orr.w	r3, r1, #1
100044a8:	606b      	str	r3, [r5, #4]
100044aa:	6001      	str	r1, [r0, #0]
100044ac:	f5b1 7f00 	cmp.w	r1, #512	@ 0x200
100044b0:	d222      	bcs.n	100044f8 <_free_r+0xb8>
100044b2:	08cb      	lsrs	r3, r1, #3
100044b4:	2201      	movs	r2, #1
100044b6:	0949      	lsrs	r1, r1, #5
100044b8:	3301      	adds	r3, #1
100044ba:	408a      	lsls	r2, r1
100044bc:	6879      	ldr	r1, [r7, #4]
100044be:	430a      	orrs	r2, r1
100044c0:	f857 1033 	ldr.w	r1, [r7, r3, lsl #3]
100044c4:	607a      	str	r2, [r7, #4]
100044c6:	eb07 02c3 	add.w	r2, r7, r3, lsl #3
100044ca:	3a08      	subs	r2, #8
100044cc:	e9c5 1202 	strd	r1, r2, [r5, #8]
100044d0:	f847 5033 	str.w	r5, [r7, r3, lsl #3]
100044d4:	60cd      	str	r5, [r1, #12]
100044d6:	4640      	mov	r0, r8
100044d8:	e8bd 41f0 	ldmia.w	sp!, {r4, r5, r6, r7, r8, lr}
100044dc:	f000 b942 	b.w	10004764 <__malloc_unlock>
100044e0:	f8dc 3004 	ldr.w	r3, [ip, #4]
100044e4:	07db      	lsls	r3, r3, #31
100044e6:	d52b      	bpl.n	10004540 <_free_r+0x100>
100044e8:	f041 0301 	orr.w	r3, r1, #1
100044ec:	f5b1 7f00 	cmp.w	r1, #512	@ 0x200
100044f0:	f844 3c04 	str.w	r3, [r4, #-4]
100044f4:	6001      	str	r1, [r0, #0]
100044f6:	d3dc      	bcc.n	100044b2 <_free_r+0x72>
100044f8:	f5b1 6f20 	cmp.w	r1, #2560	@ 0xa00
100044fc:	ea4f 2351 	mov.w	r3, r1, lsr #9
10004500:	d253      	bcs.n	100045aa <_free_r+0x16a>
10004502:	098b      	lsrs	r3, r1, #6
10004504:	f103 0039 	add.w	r0, r3, #57	@ 0x39
10004508:	f103 0238 	add.w	r2, r3, #56	@ 0x38
1000450c:	00c3      	lsls	r3, r0, #3
1000450e:	18f8      	adds	r0, r7, r3
10004510:	58fb      	ldr	r3, [r7, r3]
10004512:	3808      	subs	r0, #8
10004514:	4298      	cmp	r0, r3
10004516:	d103      	bne.n	10004520 <_free_r+0xe0>
10004518:	e061      	b.n	100045de <_free_r+0x19e>
1000451a:	689b      	ldr	r3, [r3, #8]
1000451c:	4298      	cmp	r0, r3
1000451e:	d004      	beq.n	1000452a <_free_r+0xea>
10004520:	685a      	ldr	r2, [r3, #4]
10004522:	f022 0203 	bic.w	r2, r2, #3
10004526:	428a      	cmp	r2, r1
10004528:	d8f7      	bhi.n	1000451a <_free_r+0xda>
1000452a:	68d8      	ldr	r0, [r3, #12]
1000452c:	e9c5 3002 	strd	r3, r0, [r5, #8]
10004530:	6085      	str	r5, [r0, #8]
10004532:	4640      	mov	r0, r8
10004534:	60dd      	str	r5, [r3, #12]
10004536:	e8bd 41f0 	ldmia.w	sp!, {r4, r5, r6, r7, r8, lr}
1000453a:	f000 b913 	b.w	10004764 <__malloc_unlock>
1000453e:	4770      	bx	lr
10004540:	4411      	add	r1, r2
10004542:	f107 0c08 	add.w	ip, r7, #8
10004546:	6883      	ldr	r3, [r0, #8]
10004548:	4563      	cmp	r3, ip
1000454a:	d03f      	beq.n	100045cc <_free_r+0x18c>
1000454c:	68c2      	ldr	r2, [r0, #12]
1000454e:	60da      	str	r2, [r3, #12]
10004550:	6093      	str	r3, [r2, #8]
10004552:	f041 0301 	orr.w	r3, r1, #1
10004556:	606b      	str	r3, [r5, #4]
10004558:	5069      	str	r1, [r5, r1]
1000455a:	e7a7      	b.n	100044ac <_free_r+0x6c>
1000455c:	2b00      	cmp	r3, #0
1000455e:	d15f      	bne.n	10004620 <_free_r+0x1e0>
10004560:	440a      	add	r2, r1
10004562:	e9d0 1302 	ldrd	r1, r3, [r0, #8]
10004566:	60cb      	str	r3, [r1, #12]
10004568:	6099      	str	r1, [r3, #8]
1000456a:	f042 0301 	orr.w	r3, r2, #1
1000456e:	606b      	str	r3, [r5, #4]
10004570:	50aa      	str	r2, [r5, r2]
10004572:	e7b0      	b.n	100044d6 <_free_r+0x96>
10004574:	07db      	lsls	r3, r3, #31
10004576:	440a      	add	r2, r1
10004578:	d407      	bmi.n	1000458a <_free_r+0x14a>
1000457a:	f854 3c08 	ldr.w	r3, [r4, #-8]
1000457e:	1aed      	subs	r5, r5, r3
10004580:	441a      	add	r2, r3
10004582:	e9d5 1302 	ldrd	r1, r3, [r5, #8]
10004586:	60cb      	str	r3, [r1, #12]
10004588:	6099      	str	r1, [r3, #8]
1000458a:	f042 0301 	orr.w	r3, r2, #1
1000458e:	606b      	str	r3, [r5, #4]
10004590:	4b27      	ldr	r3, [pc, #156]	@ (10004630 <_free_r+0x1f0>)
10004592:	60bd      	str	r5, [r7, #8]
10004594:	681b      	ldr	r3, [r3, #0]
10004596:	4293      	cmp	r3, r2
10004598:	d89d      	bhi.n	100044d6 <_free_r+0x96>
1000459a:	4b26      	ldr	r3, [pc, #152]	@ (10004634 <_free_r+0x1f4>)
1000459c:	4640      	mov	r0, r8
1000459e:	6819      	ldr	r1, [r3, #0]
100045a0:	f7ff fef2 	bl	10004388 <_malloc_trim_r>
100045a4:	e797      	b.n	100044d6 <_free_r+0x96>
100045a6:	4411      	add	r1, r2
100045a8:	e7cd      	b.n	10004546 <_free_r+0x106>
100045aa:	2b14      	cmp	r3, #20
100045ac:	d908      	bls.n	100045c0 <_free_r+0x180>
100045ae:	2b54      	cmp	r3, #84	@ 0x54
100045b0:	d81d      	bhi.n	100045ee <_free_r+0x1ae>
100045b2:	0b0b      	lsrs	r3, r1, #12
100045b4:	f103 006f 	add.w	r0, r3, #111	@ 0x6f
100045b8:	f103 026e 	add.w	r2, r3, #110	@ 0x6e
100045bc:	00c3      	lsls	r3, r0, #3
100045be:	e7a6      	b.n	1000450e <_free_r+0xce>
100045c0:	f103 005c 	add.w	r0, r3, #92	@ 0x5c
100045c4:	f103 025b 	add.w	r2, r3, #91	@ 0x5b
100045c8:	00c3      	lsls	r3, r0, #3
100045ca:	e7a0      	b.n	1000450e <_free_r+0xce>
100045cc:	f041 0301 	orr.w	r3, r1, #1
100045d0:	e9c7 5504 	strd	r5, r5, [r7, #16]
100045d4:	e9c5 cc02 	strd	ip, ip, [r5, #8]
100045d8:	606b      	str	r3, [r5, #4]
100045da:	5069      	str	r1, [r5, r1]
100045dc:	e77b      	b.n	100044d6 <_free_r+0x96>
100045de:	2101      	movs	r1, #1
100045e0:	1092      	asrs	r2, r2, #2
100045e2:	fa01 f202 	lsl.w	r2, r1, r2
100045e6:	6879      	ldr	r1, [r7, #4]
100045e8:	430a      	orrs	r2, r1
100045ea:	607a      	str	r2, [r7, #4]
100045ec:	e79e      	b.n	1000452c <_free_r+0xec>
100045ee:	f5b3 7faa 	cmp.w	r3, #340	@ 0x154
100045f2:	d806      	bhi.n	10004602 <_free_r+0x1c2>
100045f4:	0bcb      	lsrs	r3, r1, #15
100045f6:	f103 0078 	add.w	r0, r3, #120	@ 0x78
100045fa:	f103 0277 	add.w	r2, r3, #119	@ 0x77
100045fe:	00c3      	lsls	r3, r0, #3
10004600:	e785      	b.n	1000450e <_free_r+0xce>
10004602:	f240 5254 	movw	r2, #1364	@ 0x554
10004606:	4293      	cmp	r3, r2
10004608:	d806      	bhi.n	10004618 <_free_r+0x1d8>
1000460a:	0c8b      	lsrs	r3, r1, #18
1000460c:	f103 007d 	add.w	r0, r3, #125	@ 0x7d
10004610:	f103 027c 	add.w	r2, r3, #124	@ 0x7c
10004614:	00c3      	lsls	r3, r0, #3
10004616:	e77a      	b.n	1000450e <_free_r+0xce>
10004618:	f44f 737e 	mov.w	r3, #1016	@ 0x3f8
1000461c:	227e      	movs	r2, #126	@ 0x7e
1000461e:	e776      	b.n	1000450e <_free_r+0xce>
10004620:	f041 0301 	orr.w	r3, r1, #1
10004624:	606b      	str	r3, [r5, #4]
10004626:	6001      	str	r1, [r0, #0]
10004628:	e755      	b.n	100044d6 <_free_r+0x96>
1000462a:	bf00      	nop
1000462c:	20000c08 	.word	0x20000c08
10004630:	20001014 	.word	0x20001014
10004634:	20001478 	.word	0x20001478

10004638 <malloc>:
10004638:	4b02      	ldr	r3, [pc, #8]	@ (10004644 <malloc+0xc>)
1000463a:	4601      	mov	r1, r0
1000463c:	6818      	ldr	r0, [r3, #0]
1000463e:	f7ff bbff 	b.w	10003e40 <_malloc_r>
10004642:	bf00      	nop
10004644:	20000ae0 	.word	0x20000ae0

10004648 <free>:
10004648:	4b02      	ldr	r3, [pc, #8]	@ (10004654 <free+0xc>)
1000464a:	4601      	mov	r1, r0
1000464c:	6818      	ldr	r0, [r3, #0]
1000464e:	f7ff bef7 	b.w	10004440 <_free_r>
10004652:	bf00      	nop
10004654:	20000ae0 	.word	0x20000ae0

10004658 <memcpy>:
10004658:	4684      	mov	ip, r0
1000465a:	ea41 0300 	orr.w	r3, r1, r0
1000465e:	f013 0303 	ands.w	r3, r3, #3
10004662:	d149      	bne.n	100046f8 <memcpy+0xa0>
10004664:	3a40      	subs	r2, #64	@ 0x40
10004666:	d323      	bcc.n	100046b0 <memcpy+0x58>
10004668:	680b      	ldr	r3, [r1, #0]
1000466a:	6003      	str	r3, [r0, #0]
1000466c:	684b      	ldr	r3, [r1, #4]
1000466e:	6043      	str	r3, [r0, #4]
10004670:	688b      	ldr	r3, [r1, #8]
10004672:	6083      	str	r3, [r0, #8]
10004674:	68cb      	ldr	r3, [r1, #12]
10004676:	60c3      	str	r3, [r0, #12]
10004678:	690b      	ldr	r3, [r1, #16]
1000467a:	6103      	str	r3, [r0, #16]
1000467c:	694b      	ldr	r3, [r1, #20]
1000467e:	6143      	str	r3, [r0, #20]
10004680:	698b      	ldr	r3, [r1, #24]
10004682:	6183      	str	r3, [r0, #24]
10004684:	69cb      	ldr	r3, [r1, #28]
10004686:	61c3      	str	r3, [r0, #28]
10004688:	6a0b      	ldr	r3, [r1, #32]
1000468a:	6203      	str	r3, [r0, #32]
1000468c:	6a4b      	ldr	r3, [r1, #36]	@ 0x24
1000468e:	6243      	str	r3, [r0, #36]	@ 0x24
10004690:	6a8b      	ldr	r3, [r1, #40]	@ 0x28
10004692:	6283      	str	r3, [r0, #40]	@ 0x28
10004694:	6acb      	ldr	r3, [r1, #44]	@ 0x2c
10004696:	62c3      	str	r3, [r0, #44]	@ 0x2c
10004698:	6b0b      	ldr	r3, [r1, #48]	@ 0x30
1000469a:	6303      	str	r3, [r0, #48]	@ 0x30
1000469c:	6b4b      	ldr	r3, [r1, #52]	@ 0x34
1000469e:	6343      	str	r3, [r0, #52]	@ 0x34
100046a0:	6b8b      	ldr	r3, [r1, #56]	@ 0x38
100046a2:	6383      	str	r3, [r0, #56]	@ 0x38
100046a4:	6bcb      	ldr	r3, [r1, #60]	@ 0x3c
100046a6:	63c3      	str	r3, [r0, #60]	@ 0x3c
100046a8:	3040      	adds	r0, #64	@ 0x40
100046aa:	3140      	adds	r1, #64	@ 0x40
100046ac:	3a40      	subs	r2, #64	@ 0x40
100046ae:	d2db      	bcs.n	10004668 <memcpy+0x10>
100046b0:	3230      	adds	r2, #48	@ 0x30
100046b2:	d30b      	bcc.n	100046cc <memcpy+0x74>
100046b4:	680b      	ldr	r3, [r1, #0]
100046b6:	6003      	str	r3, [r0, #0]
100046b8:	684b      	ldr	r3, [r1, #4]
100046ba:	6043      	str	r3, [r0, #4]
100046bc:	688b      	ldr	r3, [r1, #8]
100046be:	6083      	str	r3, [r0, #8]
100046c0:	68cb      	ldr	r3, [r1, #12]
100046c2:	60c3      	str	r3, [r0, #12]
100046c4:	3010      	adds	r0, #16
100046c6:	3110      	adds	r1, #16
100046c8:	3a10      	subs	r2, #16
100046ca:	d2f3      	bcs.n	100046b4 <memcpy+0x5c>
100046cc:	320c      	adds	r2, #12
100046ce:	d305      	bcc.n	100046dc <memcpy+0x84>
100046d0:	f851 3b04 	ldr.w	r3, [r1], #4
100046d4:	f840 3b04 	str.w	r3, [r0], #4
100046d8:	3a04      	subs	r2, #4
100046da:	d2f9      	bcs.n	100046d0 <memcpy+0x78>
100046dc:	3204      	adds	r2, #4
100046de:	d008      	beq.n	100046f2 <memcpy+0x9a>
100046e0:	07d2      	lsls	r2, r2, #31
100046e2:	bf1c      	itt	ne
100046e4:	f811 3b01 	ldrbne.w	r3, [r1], #1
100046e8:	f800 3b01 	strbne.w	r3, [r0], #1
100046ec:	d301      	bcc.n	100046f2 <memcpy+0x9a>
100046ee:	880b      	ldrh	r3, [r1, #0]
100046f0:	8003      	strh	r3, [r0, #0]
100046f2:	4660      	mov	r0, ip
100046f4:	4770      	bx	lr
100046f6:	bf00      	nop
100046f8:	2a08      	cmp	r2, #8
100046fa:	d313      	bcc.n	10004724 <memcpy+0xcc>
100046fc:	078b      	lsls	r3, r1, #30
100046fe:	d0b1      	beq.n	10004664 <memcpy+0xc>
10004700:	f010 0303 	ands.w	r3, r0, #3
10004704:	d0ae      	beq.n	10004664 <memcpy+0xc>
10004706:	f1c3 0304 	rsb	r3, r3, #4
1000470a:	1ad2      	subs	r2, r2, r3
1000470c:	07db      	lsls	r3, r3, #31
1000470e:	bf1c      	itt	ne
10004710:	f811 3b01 	ldrbne.w	r3, [r1], #1
10004714:	f800 3b01 	strbne.w	r3, [r0], #1
10004718:	d3a4      	bcc.n	10004664 <memcpy+0xc>
1000471a:	f831 3b02 	ldrh.w	r3, [r1], #2
1000471e:	f820 3b02 	strh.w	r3, [r0], #2
10004722:	e79f      	b.n	10004664 <memcpy+0xc>
10004724:	3a04      	subs	r2, #4
10004726:	d3d9      	bcc.n	100046dc <memcpy+0x84>
10004728:	3a01      	subs	r2, #1
1000472a:	f811 3b01 	ldrb.w	r3, [r1], #1
1000472e:	f800 3b01 	strb.w	r3, [r0], #1
10004732:	d2f9      	bcs.n	10004728 <memcpy+0xd0>
10004734:	780b      	ldrb	r3, [r1, #0]
10004736:	7003      	strb	r3, [r0, #0]
10004738:	784b      	ldrb	r3, [r1, #1]
1000473a:	7043      	strb	r3, [r0, #1]
1000473c:	788b      	ldrb	r3, [r1, #2]
1000473e:	7083      	strb	r3, [r0, #2]
10004740:	4660      	mov	r0, ip
10004742:	4770      	bx	lr

10004744 <sysconf>:
10004744:	2808      	cmp	r0, #8
10004746:	d102      	bne.n	1000474e <sysconf+0xa>
10004748:	f44f 5080 	mov.w	r0, #4096	@ 0x1000
1000474c:	4770      	bx	lr
1000474e:	b508      	push	{r3, lr}
10004750:	f7ff fb38 	bl	10003dc4 <__errno>
10004754:	2216      	movs	r2, #22
10004756:	4603      	mov	r3, r0
10004758:	f04f 30ff 	mov.w	r0, #4294967295	@ 0xffffffff
1000475c:	601a      	str	r2, [r3, #0]
1000475e:	bd08      	pop	{r3, pc}

10004760 <__malloc_lock>:
10004760:	4770      	bx	lr
10004762:	bf00      	nop

10004764 <__malloc_unlock>:
10004764:	4770      	bx	lr
10004766:	bf00      	nop

10004768 <atexit>:
10004768:	2300      	movs	r3, #0
1000476a:	4601      	mov	r1, r0
1000476c:	461a      	mov	r2, r3
1000476e:	4618      	mov	r0, r3
10004770:	f000 b854 	b.w	1000481c <__register_exitproc>

10004774 <strlen>:
10004774:	f020 0103 	bic.w	r1, r0, #3
10004778:	f010 0003 	ands.w	r0, r0, #3
1000477c:	f1c0 0000 	rsb	r0, r0, #0
10004780:	f851 3b04 	ldr.w	r3, [r1], #4
10004784:	f100 0c04 	add.w	ip, r0, #4
10004788:	ea4f 0ccc 	mov.w	ip, ip, lsl #3
1000478c:	f06f 0200 	mvn.w	r2, #0
10004790:	bf1c      	itt	ne
10004792:	fa22 f20c 	lsrne.w	r2, r2, ip
10004796:	4313      	orrne	r3, r2
10004798:	f04f 0c01 	mov.w	ip, #1
1000479c:	ea4c 2c0c 	orr.w	ip, ip, ip, lsl #8
100047a0:	ea4c 4c0c 	orr.w	ip, ip, ip, lsl #16
100047a4:	eba3 020c 	sub.w	r2, r3, ip
100047a8:	ea22 0203 	bic.w	r2, r2, r3
100047ac:	ea12 12cc 	ands.w	r2, r2, ip, lsl #7
100047b0:	bf04      	itt	eq
100047b2:	f851 3b04 	ldreq.w	r3, [r1], #4
100047b6:	3004      	addeq	r0, #4
100047b8:	d0f4      	beq.n	100047a4 <strlen+0x30>
100047ba:	f1c2 0100 	rsb	r1, r2, #0
100047be:	ea02 0201 	and.w	r2, r2, r1
100047c2:	fab2 f282 	clz	r2, r2
100047c6:	f1c2 021f 	rsb	r2, r2, #31
100047ca:	eb00 00d2 	add.w	r0, r0, r2, lsr #3
100047ce:	4770      	bx	lr

100047d0 <_sbrk_r>:
100047d0:	b538      	push	{r3, r4, r5, lr}
100047d2:	2200      	movs	r2, #0
100047d4:	4d06      	ldr	r5, [pc, #24]	@ (100047f0 <_sbrk_r+0x20>)
100047d6:	4604      	mov	r4, r0
100047d8:	4608      	mov	r0, r1
100047da:	602a      	str	r2, [r5, #0]
100047dc:	f7fe fb18 	bl	10002e10 <_sbrk>
100047e0:	1c43      	adds	r3, r0, #1
100047e2:	d000      	beq.n	100047e6 <_sbrk_r+0x16>
100047e4:	bd38      	pop	{r3, r4, r5, pc}
100047e6:	682b      	ldr	r3, [r5, #0]
100047e8:	2b00      	cmp	r3, #0
100047ea:	d0fb      	beq.n	100047e4 <_sbrk_r+0x14>
100047ec:	6023      	str	r3, [r4, #0]
100047ee:	bd38      	pop	{r3, r4, r5, pc}
100047f0:	200015e8 	.word	0x200015e8

100047f4 <__libc_fini_array>:
100047f4:	b538      	push	{r3, r4, r5, lr}
100047f6:	4d07      	ldr	r5, [pc, #28]	@ (10004814 <__libc_fini_array+0x20>)
100047f8:	4c07      	ldr	r4, [pc, #28]	@ (10004818 <__libc_fini_array+0x24>)
100047fa:	1b2c      	subs	r4, r5, r4
100047fc:	10a4      	asrs	r4, r4, #2
100047fe:	d005      	beq.n	1000480c <__libc_fini_array+0x18>
10004800:	3c01      	subs	r4, #1
10004802:	f855 3d04 	ldr.w	r3, [r5, #-4]!
10004806:	4798      	blx	r3
10004808:	2c00      	cmp	r4, #0
1000480a:	d1f9      	bne.n	10004800 <__libc_fini_array+0xc>
1000480c:	e8bd 4038 	ldmia.w	sp!, {r3, r4, r5, lr}
10004810:	f000 b840 	b.w	10004894 <_fini>
10004814:	10004900 	.word	0x10004900
10004818:	10004900 	.word	0x10004900

1000481c <__register_exitproc>:
1000481c:	b470      	push	{r4, r5, r6}
1000481e:	4d16      	ldr	r5, [pc, #88]	@ (10004878 <__register_exitproc+0x5c>)
10004820:	682c      	ldr	r4, [r5, #0]
10004822:	b31c      	cbz	r4, 1000486c <__register_exitproc+0x50>
10004824:	6865      	ldr	r5, [r4, #4]
10004826:	2d1f      	cmp	r5, #31
10004828:	dc23      	bgt.n	10004872 <__register_exitproc+0x56>
1000482a:	b938      	cbnz	r0, 1000483c <__register_exitproc+0x20>
1000482c:	1c6b      	adds	r3, r5, #1
1000482e:	2000      	movs	r0, #0
10004830:	3502      	adds	r5, #2
10004832:	6063      	str	r3, [r4, #4]
10004834:	f844 1025 	str.w	r1, [r4, r5, lsl #2]
10004838:	bc70      	pop	{r4, r5, r6}
1000483a:	4770      	bx	lr
1000483c:	eb04 0c85 	add.w	ip, r4, r5, lsl #2
10004840:	2802      	cmp	r0, #2
10004842:	f8cc 2088 	str.w	r2, [ip, #136]	@ 0x88
10004846:	f04f 0201 	mov.w	r2, #1
1000484a:	f8d4 6188 	ldr.w	r6, [r4, #392]	@ 0x188
1000484e:	fa02 f205 	lsl.w	r2, r2, r5
10004852:	ea46 0602 	orr.w	r6, r6, r2
10004856:	f8c4 6188 	str.w	r6, [r4, #392]	@ 0x188
1000485a:	f8cc 3108 	str.w	r3, [ip, #264]	@ 0x108
1000485e:	d1e5      	bne.n	1000482c <__register_exitproc+0x10>
10004860:	f8d4 318c 	ldr.w	r3, [r4, #396]	@ 0x18c
10004864:	4313      	orrs	r3, r2
10004866:	f8c4 318c 	str.w	r3, [r4, #396]	@ 0x18c
1000486a:	e7df      	b.n	1000482c <__register_exitproc+0x10>
1000486c:	4c03      	ldr	r4, [pc, #12]	@ (1000487c <__register_exitproc+0x60>)
1000486e:	602c      	str	r4, [r5, #0]
10004870:	e7d8      	b.n	10004824 <__register_exitproc+0x8>
10004872:	f04f 30ff 	mov.w	r0, #4294967295	@ 0xffffffff
10004876:	e7df      	b.n	10004838 <__register_exitproc+0x1c>
10004878:	2000177c 	.word	0x2000177c
1000487c:	200015ec 	.word	0x200015ec

10004880 <register_fini>:
10004880:	4b02      	ldr	r3, [pc, #8]	@ (1000488c <register_fini+0xc>)
10004882:	b113      	cbz	r3, 1000488a <register_fini+0xa>
10004884:	4802      	ldr	r0, [pc, #8]	@ (10004890 <register_fini+0x10>)
10004886:	f7ff bf6f 	b.w	10004768 <atexit>
1000488a:	4770      	bx	lr
1000488c:	00000000 	.word	0x00000000
10004890:	100047f5 	.word	0x100047f5

10004894 <_fini>:
10004894:	b5f8      	push	{r3, r4, r5, r6, r7, lr}
10004896:	bf00      	nop

10004898 <__tmds_encode_font_2bpp_veneer>:
10004898:	f85f f000 	ldr.w	pc, [pc]	@ 1000489c <__tmds_encode_font_2bpp_veneer+0x4>
1000489c:	20080001 	.word	0x20080001

100048a0 <__mutex_exit_veneer>:
100048a0:	f85f f000 	ldr.w	pc, [pc]	@ 100048a4 <__mutex_exit_veneer+0x4>
100048a4:	20000411 	.word	0x20000411

100048a8 <__mutex_enter_blocking_veneer>:
100048a8:	f85f f000 	ldr.w	pc, [pc]	@ 100048ac <__mutex_enter_blocking_veneer+0x4>
100048ac:	200002b5 	.word	0x200002b5

100048b0 <__mutex_try_enter_block_until_veneer>:
100048b0:	f85f f000 	ldr.w	pc, [pc]	@ 100048b4 <__mutex_try_enter_block_until_veneer+0x4>
100048b4:	200003a5 	.word	0x200003a5

100048b8 <__pre_init_runtime_init_bootrom_reset>:
100048b8:	10002bed                                .+..

100048bc <__pre_init_runtime_init_early_resets>:
100048bc:	10002b61                                a+..

100048c0 <__pre_init_runtime_init_usb_power_down>:
100048c0:	10002b95                                .+..

100048c4 <__pre_init_runtime_init_clocks>:
100048c4:	10002c81                                .,..

100048c8 <__pre_init_runtime_init_post_clock_resets>:
100048c8:	10002bcd                                .+..

100048cc <__pre_init_runtime_init_boot_locks_reset>:
100048cc:	10002ac5                                .*..

100048d0 <__pre_init_runtime_init_spin_locks_reset>:
100048d0:	10002c15                                .,..

100048d4 <__pre_init_runtime_init_bootrom_locking_enable>:
100048d4:	10002ab1                                .*..

100048d8 <__pre_init_runtime_init_mutex>:
100048d8:	10001cb5                                ....

100048dc <__pre_init_runtime_init_install_ram_vector_table>:
100048dc:	10002c19                                .,..

100048e0 <__pre_init_runtime_init_default_alarm_pool>:
100048e0:	10002031                                1 ..

100048e4 <__pre_init_first_per_core_initializer>:
100048e4:	10002b11                                .+..

100048e8 <__pre_init_runtime_init_per_core_bootrom_reset>:
100048e8:	10002c01                                .,..

100048ec <__pre_init_runtime_init_per_core_enable_coprocessors>:
100048ec:	10002bb1                                .+..

100048f0 <__pre_init_spinlock_set_extexclall>:
100048f0:	10001b95                                ....

100048f4 <__pre_init_runtime_init_per_core_irq_priorities>:
100048f4:	10001bbd                                ....

100048f8 <__init_array_start>:
100048f8:	10004881 	.word	0x10004881

100048fc <__frame_dummy_init_array_entry>:
100048fc:	10000255                                U...

Disassembly of section .data:

20000110 <main>:
20000110:	e92d 43f0 	stmdb	sp!, {r4, r5, r6, r7, r8, r9, lr}
20000114:	200d      	movs	r0, #13
20000116:	b085      	sub	sp, #20
20000118:	4d57      	ldr	r5, [pc, #348]	@ (20000278 <main+0x168>)
2000011a:	f000 fc9d 	bl	20000a58 <__vreg_set_voltage_veneer>
2000011e:	200a      	movs	r0, #10
20000120:	f000 fc5a 	bl	200009d8 <__sleep_ms_veneer>
20000124:	6aac      	ldr	r4, [r5, #40]	@ 0x28
20000126:	ab03      	add	r3, sp, #12
20000128:	4620      	mov	r0, r4
2000012a:	aa02      	add	r2, sp, #8
2000012c:	a901      	add	r1, sp, #4
2000012e:	f000 fc8b 	bl	20000a48 <__check_sys_clock_khz_veneer>
20000132:	b918      	cbnz	r0, 2000013c <main+0x2c>
20000134:	4621      	mov	r1, r4
20000136:	4851      	ldr	r0, [pc, #324]	@ (2000027c <main+0x16c>)
20000138:	f000 fc76 	bl	20000a28 <__panic_veneer>
2000013c:	e9dd 1202 	ldrd	r1, r2, [sp, #8]
20000140:	9801      	ldr	r0, [sp, #4]
20000142:	f000 fc69 	bl	20000a18 <__set_sys_clock_pll_veneer>
20000146:	2007      	movs	r0, #7
20000148:	f000 fc56 	bl	200009f8 <__gpio_init_veneer>
2000014c:	2307      	movs	r3, #7
2000014e:	f04f 0201 	mov.w	r2, #1
20000152:	ec42 3044 	gpioc_bit_oe_put r3, r2
20000156:	2414      	movs	r4, #20
20000158:	f04f 0600 	mov.w	r6, #0
2000015c:	4620      	mov	r0, r4
2000015e:	f000 fc4b 	bl	200009f8 <__gpio_init_veneer>
20000162:	ec46 4044 	gpioc_bit_oe_put r4, r6
20000166:	2200      	movs	r2, #0
20000168:	4620      	mov	r0, r4
2000016a:	4611      	mov	r1, r2
2000016c:	3401      	adds	r4, #1
2000016e:	f000 fc4b 	bl	20000a08 <__gpio_set_pulls_veneer>
20000172:	2c1e      	cmp	r4, #30
20000174:	d1f2      	bne.n	2000015c <main+0x4c>
20000176:	f44f 7280 	mov.w	r2, #256	@ 0x100
2000017a:	4c41      	ldr	r4, [pc, #260]	@ (20000280 <main+0x170>)
2000017c:	200f      	movs	r0, #15
2000017e:	6823      	ldr	r3, [r4, #0]
20000180:	4940      	ldr	r1, [pc, #256]	@ (20000284 <main+0x174>)
20000182:	f503 5305 	add.w	r3, r3, #8512	@ 0x2140
20000186:	631a      	str	r2, [r3, #48]	@ 0x30
20000188:	f000 fc32 	bl	200009f0 <__irq_set_exclusive_handler_veneer>
2000018c:	2101      	movs	r1, #1
2000018e:	200f      	movs	r0, #15
20000190:	f000 fc66 	bl	20000a60 <__irq_set_enabled_veneer>
20000194:	493c      	ldr	r1, [pc, #240]	@ (20000288 <main+0x178>)
20000196:	6820      	ldr	r0, [r4, #0]
20000198:	f000 fc5a 	bl	20000a50 <__pio_add_program_veneer>
2000019c:	4602      	mov	r2, r0
2000019e:	4e3b      	ldr	r6, [pc, #236]	@ (2000028c <main+0x17c>)
200001a0:	6820      	ldr	r0, [r4, #0]
200001a2:	4c3b      	ldr	r4, [pc, #236]	@ (20000290 <main+0x180>)
200001a4:	2314      	movs	r3, #20
200001a6:	2100      	movs	r1, #0
200001a8:	6032      	str	r2, [r6, #0]
200001aa:	f000 fc41 	bl	20000a30 <__bus_interface_program_init_veneer>
200001ae:	4620      	mov	r0, r4
200001b0:	2224      	movs	r2, #36	@ 0x24
200001b2:	2100      	movs	r1, #0
200001b4:	f840 5b40 	str.w	r5, [r0], #64
200001b8:	f000 fc2a 	bl	20000a10 <__memset_veneer>
200001bc:	2102      	movs	r1, #2
200001be:	230c      	movs	r3, #12
200001c0:	2212      	movs	r2, #18
200001c2:	e9c4 1312 	strd	r1, r3, [r4, #72]	@ 0x48
200001c6:	2610      	movs	r6, #16
200001c8:	230e      	movs	r3, #14
200001ca:	2001      	movs	r0, #1
200001cc:	4d31      	ldr	r5, [pc, #196]	@ (20000294 <main+0x184>)
200001ce:	65a3      	str	r3, [r4, #88]	@ 0x58
200001d0:	e9c4 2614 	strd	r2, r6, [r4, #80]	@ 0x50
200001d4:	63e5      	str	r5, [r4, #60]	@ 0x3c
200001d6:	6460      	str	r0, [r4, #68]	@ 0x44
200001d8:	f000 fc06 	bl	200009e8 <__next_striped_spin_lock_num_veneer>
200001dc:	4605      	mov	r5, r0
200001de:	f000 fc03 	bl	200009e8 <__next_striped_spin_lock_num_veneer>
200001e2:	4629      	mov	r1, r5
200001e4:	4602      	mov	r2, r0
200001e6:	4620      	mov	r0, r4
200001e8:	f000 fc26 	bl	20000a38 <__dvi_init_veneer>
200001ec:	f000 fbf8 	bl	200009e0 <__text_init_veneer>
200001f0:	4b29      	ldr	r3, [pc, #164]	@ (20000298 <main+0x188>)
200001f2:	482a      	ldr	r0, [pc, #168]	@ (2000029c <main+0x18c>)
200001f4:	601e      	str	r6, [r3, #0]
200001f6:	f000 fc13 	bl	20000a20 <__multicore_launch_core1_veneer>
200001fa:	4e29      	ldr	r6, [pc, #164]	@ (200002a0 <main+0x190>)
200001fc:	4d29      	ldr	r5, [pc, #164]	@ (200002a4 <main+0x194>)
200001fe:	f8df 90ac 	ldr.w	r9, [pc, #172]	@ 200002ac <main+0x19c>
20000202:	f8df 80ac 	ldr.w	r8, [pc, #172]	@ 200002b0 <main+0x1a0>
20000206:	4f28      	ldr	r7, [pc, #160]	@ (200002a8 <main+0x198>)
20000208:	6834      	ldr	r4, [r6, #0]
2000020a:	f8d9 3000 	ldr.w	r3, [r9]
2000020e:	602c      	str	r4, [r5, #0]
20000210:	429c      	cmp	r4, r3
20000212:	d026      	beq.n	20000262 <main+0x152>
20000214:	2100      	movs	r1, #0
20000216:	4a24      	ldr	r2, [pc, #144]	@ (200002a8 <main+0x198>)
20000218:	e00b      	b.n	20000232 <main+0x122>
2000021a:	f822 0b02 	strh.w	r0, [r2], #2
2000021e:	b314      	cbz	r4, 20000266 <main+0x156>
20000220:	2301      	movs	r3, #1
20000222:	f8b8 0000 	ldrh.w	r0, [r8]
20000226:	429c      	cmp	r4, r3
20000228:	f101 0102 	add.w	r1, r1, #2
2000022c:	f822 0b02 	strh.w	r0, [r2], #2
20000230:	d00c      	beq.n	2000024c <main+0x13c>
20000232:	f838 0013 	ldrh.w	r0, [r8, r3, lsl #1]
20000236:	3301      	adds	r3, #1
20000238:	f5b3 7f00 	cmp.w	r3, #512	@ 0x200
2000023c:	f101 0c01 	add.w	ip, r1, #1
20000240:	d2eb      	bcs.n	2000021a <main+0x10a>
20000242:	429c      	cmp	r4, r3
20000244:	4661      	mov	r1, ip
20000246:	f822 0b02 	strh.w	r0, [r2], #2
2000024a:	d1f2      	bne.n	20000232 <main+0x122>
2000024c:	4638      	mov	r0, r7
2000024e:	f8c9 3000 	str.w	r3, [r9]
20000252:	f000 fbd5 	bl	20000a00 <__data_receive_veneer>
20000256:	6834      	ldr	r4, [r6, #0]
20000258:	f8d9 3000 	ldr.w	r3, [r9]
2000025c:	602c      	str	r4, [r5, #0]
2000025e:	429c      	cmp	r4, r3
20000260:	d1d8      	bne.n	20000214 <main+0x104>
20000262:	bf30      	wfi
20000264:	e7d0      	b.n	20000208 <main+0xf8>
20000266:	4623      	mov	r3, r4
20000268:	4661      	mov	r1, ip
2000026a:	4638      	mov	r0, r7
2000026c:	f8c9 3000 	str.w	r3, [r9]
20000270:	f000 fbc6 	bl	20000a00 <__data_receive_veneer>
20000274:	e7ef      	b.n	20000256 <main+0x146>
20000276:	bf00      	nop
20000278:	20000a84 	.word	0x20000a84
2000027c:	10004900 	.word	0x10004900
20000280:	20000ab4 	.word	0x20000ab4
20000284:	10000431 	.word	0x10000431
20000288:	10004aa0 	.word	0x10004aa0
2000028c:	20006f44 	.word	0x20006f44
20000290:	200011a8 	.word	0x200011a8
20000294:	50300000 	.word	0x50300000
20000298:	4006a000 	.word	0x4006a000
2000029c:	10000491 	.word	0x10000491
200002a0:	20005f2c 	.word	0x20005f2c
200002a4:	20006f3c 	.word	0x20006f3c
200002a8:	2000572c 	.word	0x2000572c
200002ac:	20005f30 	.word	0x20005f30
200002b0:	20005b2c 	.word	0x20005b2c

200002b4 <mutex_enter_blocking>:
200002b4:	f04f 4350 	mov.w	r3, #3489660928	@ 0xd0000000
200002b8:	b510      	push	{r4, lr}
200002ba:	6802      	ldr	r2, [r0, #0]
200002bc:	f993 4000 	ldrsb.w	r4, [r3]
200002c0:	f3ef 8310 	mrs	r3, PRIMASK
200002c4:	b672      	cpsid	i
200002c6:	e8d2 cfcf 	ldaexb	ip, [r2]
200002ca:	2101      	movs	r1, #1
200002cc:	f1bc 0f00 	cmp.w	ip, #0
200002d0:	d1f9      	bne.n	200002c6 <mutex_enter_blocking+0x12>
200002d2:	e8c2 1f4c 	strexb	ip, r1, [r2]
200002d6:	f1bc 0f00 	cmp.w	ip, #0
200002da:	d1f4      	bne.n	200002c6 <mutex_enter_blocking+0x12>
200002dc:	f3bf 8f5f 	dmb	sy
200002e0:	f990 2004 	ldrsb.w	r2, [r0, #4]
200002e4:	2a00      	cmp	r2, #0
200002e6:	db1c      	blt.n	20000322 <mutex_enter_blocking+0x6e>
200002e8:	2100      	movs	r1, #0
200002ea:	6802      	ldr	r2, [r0, #0]
200002ec:	e8c2 1f8f 	stlb	r1, [r2]
200002f0:	f383 8810 	msr	PRIMASK, r3
200002f4:	bf20      	wfe
200002f6:	6802      	ldr	r2, [r0, #0]
200002f8:	f3ef 8310 	mrs	r3, PRIMASK
200002fc:	b672      	cpsid	i
200002fe:	e8d2 efcf 	ldaexb	lr, [r2]
20000302:	f05f 0c01 	movs.w	ip, #1
20000306:	f1be 0f00 	cmp.w	lr, #0
2000030a:	d1f8      	bne.n	200002fe <mutex_enter_blocking+0x4a>
2000030c:	e8c2 cf4e 	strexb	lr, ip, [r2]
20000310:	f1be 0f00 	cmp.w	lr, #0
20000314:	d1f3      	bne.n	200002fe <mutex_enter_blocking+0x4a>
20000316:	f3bf 8f5f 	dmb	sy
2000031a:	f990 2004 	ldrsb.w	r2, [r0, #4]
2000031e:	2a00      	cmp	r2, #0
20000320:	dae3      	bge.n	200002ea <mutex_enter_blocking+0x36>
20000322:	2200      	movs	r2, #0
20000324:	6801      	ldr	r1, [r0, #0]
20000326:	7104      	strb	r4, [r0, #4]
20000328:	e8c1 2f8f 	stlb	r2, [r1]
2000032c:	f383 8810 	msr	PRIMASK, r3
20000330:	bd10      	pop	{r4, pc}
20000332:	bf00      	nop

20000334 <mutex_enter_block_until>:
20000334:	f04f 4150 	mov.w	r1, #3489660928	@ 0xd0000000
20000338:	e92d 41f0 	stmdb	sp!, {r4, r5, r6, r7, r8, lr}
2000033c:	2700      	movs	r7, #0
2000033e:	4604      	mov	r4, r0
20000340:	4616      	mov	r6, r2
20000342:	461d      	mov	r5, r3
20000344:	f8d1 8000 	ldr.w	r8, [r1]
20000348:	e009      	b.n	2000035e <mutex_enter_block_until+0x2a>
2000034a:	6823      	ldr	r3, [r4, #0]
2000034c:	e8c3 7f8f 	stlb	r7, [r3]
20000350:	f38c 8810 	msr	PRIMASK, ip
20000354:	4630      	mov	r0, r6
20000356:	4629      	mov	r1, r5
20000358:	f000 fb72 	bl	20000a40 <__best_effort_wfe_or_timeout_veneer>
2000035c:	b9f0      	cbnz	r0, 2000039c <mutex_enter_block_until+0x68>
2000035e:	6821      	ldr	r1, [r4, #0]
20000360:	f3ef 8c10 	mrs	ip, PRIMASK
20000364:	b672      	cpsid	i
20000366:	e8d1 2fcf 	ldaexb	r2, [r1]
2000036a:	2301      	movs	r3, #1
2000036c:	2a00      	cmp	r2, #0
2000036e:	d1fa      	bne.n	20000366 <mutex_enter_block_until+0x32>
20000370:	e8c1 3f42 	strexb	r2, r3, [r1]
20000374:	2a00      	cmp	r2, #0
20000376:	d1f6      	bne.n	20000366 <mutex_enter_block_until+0x32>
20000378:	f3bf 8f5f 	dmb	sy
2000037c:	f994 e004 	ldrsb.w	lr, [r4, #4]
20000380:	f1be 0f00 	cmp.w	lr, #0
20000384:	dae1      	bge.n	2000034a <mutex_enter_block_until+0x16>
20000386:	2300      	movs	r3, #0
20000388:	6822      	ldr	r2, [r4, #0]
2000038a:	f884 8004 	strb.w	r8, [r4, #4]
2000038e:	e8c2 3f8f 	stlb	r3, [r2]
20000392:	f38c 8810 	msr	PRIMASK, ip
20000396:	2001      	movs	r0, #1
20000398:	e8bd 81f0 	ldmia.w	sp!, {r4, r5, r6, r7, r8, pc}
2000039c:	2000      	movs	r0, #0
2000039e:	e8bd 81f0 	ldmia.w	sp!, {r4, r5, r6, r7, r8, pc}
200003a2:	bf00      	nop

200003a4 <mutex_try_enter_block_until>:
200003a4:	b530      	push	{r4, r5, lr}
200003a6:	4601      	mov	r1, r0
200003a8:	6804      	ldr	r4, [r0, #0]
200003aa:	f3ef 8c10 	mrs	ip, PRIMASK
200003ae:	b672      	cpsid	i
200003b0:	e8d4 efcf 	ldaexb	lr, [r4]
200003b4:	2501      	movs	r5, #1
200003b6:	f1be 0f00 	cmp.w	lr, #0
200003ba:	d1f9      	bne.n	200003b0 <mutex_try_enter_block_until+0xc>
200003bc:	e8c4 5f4e 	strexb	lr, r5, [r4]
200003c0:	f1be 0f00 	cmp.w	lr, #0
200003c4:	d1f4      	bne.n	200003b0 <mutex_try_enter_block_until+0xc>
200003c6:	f3bf 8f5f 	dmb	sy
200003ca:	f990 4004 	ldrsb.w	r4, [r0, #4]
200003ce:	2c00      	cmp	r4, #0
200003d0:	db11      	blt.n	200003f6 <mutex_try_enter_block_until+0x52>
200003d2:	2100      	movs	r1, #0
200003d4:	6805      	ldr	r5, [r0, #0]
200003d6:	e8c5 1f8f 	stlb	r1, [r5]
200003da:	f38c 8810 	msr	PRIMASK, ip
200003de:	f04f 4c50 	mov.w	ip, #3489660928	@ 0xd0000000
200003e2:	f99c c000 	ldrsb.w	ip, [ip]
200003e6:	45a4      	cmp	ip, r4
200003e8:	d101      	bne.n	200003ee <mutex_try_enter_block_until+0x4a>
200003ea:	4608      	mov	r0, r1
200003ec:	bd30      	pop	{r4, r5, pc}
200003ee:	e8bd 4030 	ldmia.w	sp!, {r4, r5, lr}
200003f2:	f7ff bf9f 	b.w	20000334 <mutex_enter_block_until>
200003f6:	f04f 4050 	mov.w	r0, #3489660928	@ 0xd0000000
200003fa:	6800      	ldr	r0, [r0, #0]
200003fc:	2300      	movs	r3, #0
200003fe:	680a      	ldr	r2, [r1, #0]
20000400:	7108      	strb	r0, [r1, #4]
20000402:	e8c2 3f8f 	stlb	r3, [r2]
20000406:	f38c 8810 	msr	PRIMASK, ip
2000040a:	2001      	movs	r0, #1
2000040c:	bd30      	pop	{r4, r5, pc}
2000040e:	bf00      	nop

20000410 <mutex_exit>:
20000410:	6803      	ldr	r3, [r0, #0]
20000412:	f3ef 8210 	mrs	r2, PRIMASK
20000416:	b672      	cpsid	i
20000418:	e8d3 cfcf 	ldaexb	ip, [r3]
2000041c:	2101      	movs	r1, #1
2000041e:	f1bc 0f00 	cmp.w	ip, #0
20000422:	d1f9      	bne.n	20000418 <mutex_exit+0x8>
20000424:	e8c3 1f4c 	strexb	ip, r1, [r3]
20000428:	f1bc 0f00 	cmp.w	ip, #0
2000042c:	d1f4      	bne.n	20000418 <mutex_exit+0x8>
2000042e:	f3bf 8f5f 	dmb	sy
20000432:	f04f 0cff 	mov.w	ip, #255	@ 0xff
20000436:	2300      	movs	r3, #0
20000438:	6801      	ldr	r1, [r0, #0]
2000043a:	f880 c004 	strb.w	ip, [r0, #4]
2000043e:	e8c1 3f8f 	stlb	r3, [r1]
20000442:	f382 8810 	msr	PRIMASK, r2
20000446:	bf40      	sev
20000448:	4770      	bx	lr
2000044a:	bf00      	nop

2000044c <dvi_dma_irq_handler>:
2000044c:	4601      	mov	r1, r0
2000044e:	e92d 47f0 	stmdb	sp!, {r4, r5, r6, r7, r8, r9, sl, lr}
20000452:	4604      	mov	r4, r0
20000454:	f851 0b34 	ldr.w	r0, [r1], #52
20000458:	f000 fa92 	bl	20000980 <dvi_timing_state_advance>
2000045c:	f8d4 326c 	ldr.w	r3, [r4, #620]	@ 0x26c
20000460:	2b00      	cmp	r3, #0
20000462:	d031      	beq.n	200004c8 <dvi_dma_irq_handler+0x7c>
20000464:	f8d4 3284 	ldr.w	r3, [r4, #644]	@ 0x284
20000468:	f3ef 8510 	mrs	r5, PRIMASK
2000046c:	b672      	cpsid	i
2000046e:	e8d3 1fcf 	ldaexb	r1, [r3]
20000472:	2201      	movs	r2, #1
20000474:	2900      	cmp	r1, #0
20000476:	d1fa      	bne.n	2000046e <dvi_dma_irq_handler+0x22>
20000478:	e8c3 2f41 	strexb	r1, r2, [r3]
2000047c:	2900      	cmp	r1, #0
2000047e:	d1f6      	bne.n	2000046e <dvi_dma_irq_handler+0x22>
20000480:	f3bf 8f5f 	dmb	sy
20000484:	f8b4 228c 	ldrh.w	r2, [r4, #652]	@ 0x28c
20000488:	f8b4 328e 	ldrh.w	r3, [r4, #654]	@ 0x28e
2000048c:	f8b4 1292 	ldrh.w	r1, [r4, #658]	@ 0x292
20000490:	1ad3      	subs	r3, r2, r3
20000492:	bf44      	itt	mi
20000494:	1c48      	addmi	r0, r1, #1
20000496:	181b      	addmi	r3, r3, r0
20000498:	428b      	cmp	r3, r1
2000049a:	f8d4 0284 	ldr.w	r0, [r4, #644]	@ 0x284
2000049e:	f000 81e1 	beq.w	20000864 <dvi_dma_irq_handler+0x418>
200004a2:	1c53      	adds	r3, r2, #1
200004a4:	b29b      	uxth	r3, r3
200004a6:	428b      	cmp	r3, r1
200004a8:	bf88      	it	hi
200004aa:	2300      	movhi	r3, #0
200004ac:	f8d4 626c 	ldr.w	r6, [r4, #620]	@ 0x26c
200004b0:	f8d4 1288 	ldr.w	r1, [r4, #648]	@ 0x288
200004b4:	f841 6022 	str.w	r6, [r1, r2, lsl #2]
200004b8:	2200      	movs	r2, #0
200004ba:	f8a4 328c 	strh.w	r3, [r4, #652]	@ 0x28c
200004be:	e8c0 2f8f 	stlb	r2, [r0]
200004c2:	f385 8810 	msr	PRIMASK, r5
200004c6:	bf40      	sev
200004c8:	2200      	movs	r2, #0
200004ca:	f8d4 1268 	ldr.w	r1, [r4, #616]	@ 0x268
200004ce:	6823      	ldr	r3, [r4, #0]
200004d0:	68a0      	ldr	r0, [r4, #8]
200004d2:	691b      	ldr	r3, [r3, #16]
200004d4:	f8c4 126c 	str.w	r1, [r4, #620]	@ 0x26c
200004d8:	4963      	ldr	r1, [pc, #396]	@ (20000668 <dvi_dma_irq_handler+0x21c>)
200004da:	085b      	lsrs	r3, r3, #1
200004dc:	eb01 1180 	add.w	r1, r1, r0, lsl #6
200004e0:	f8c4 2268 	str.w	r2, [r4, #616]	@ 0x268
200004e4:	684a      	ldr	r2, [r1, #4]
200004e6:	4293      	cmp	r3, r2
200004e8:	d1fc      	bne.n	200004e4 <dvi_dma_irq_handler+0x98>
200004ea:	69a2      	ldr	r2, [r4, #24]
200004ec:	495e      	ldr	r1, [pc, #376]	@ (20000668 <dvi_dma_irq_handler+0x21c>)
200004ee:	eb01 1182 	add.w	r1, r1, r2, lsl #6
200004f2:	684a      	ldr	r2, [r1, #4]
200004f4:	4293      	cmp	r3, r2
200004f6:	d1fc      	bne.n	200004f2 <dvi_dma_irq_handler+0xa6>
200004f8:	6aa2      	ldr	r2, [r4, #40]	@ 0x28
200004fa:	495b      	ldr	r1, [pc, #364]	@ (20000668 <dvi_dma_irq_handler+0x21c>)
200004fc:	eb01 1182 	add.w	r1, r1, r2, lsl #6
20000500:	684a      	ldr	r2, [r1, #4]
20000502:	429a      	cmp	r2, r3
20000504:	d1fc      	bne.n	20000500 <dvi_dma_irq_handler+0xb4>
20000506:	f8d4 3270 	ldr.w	r3, [r4, #624]	@ 0x270
2000050a:	2b00      	cmp	r3, #0
2000050c:	d063      	beq.n	200005d6 <dvi_dma_irq_handler+0x18a>
2000050e:	f04f 0c00 	mov.w	ip, #0
20000512:	f8d4 3274 	ldr.w	r3, [r4, #628]	@ 0x274
20000516:	f3ef 8110 	mrs	r1, PRIMASK
2000051a:	b672      	cpsid	i
2000051c:	e8d3 0fcf 	ldaexb	r0, [r3]
20000520:	2201      	movs	r2, #1
20000522:	2800      	cmp	r0, #0
20000524:	d1fa      	bne.n	2000051c <dvi_dma_irq_handler+0xd0>
20000526:	e8c3 2f40 	strexb	r0, r2, [r3]
2000052a:	2800      	cmp	r0, #0
2000052c:	d1f6      	bne.n	2000051c <dvi_dma_irq_handler+0xd0>
2000052e:	f3bf 8f5f 	dmb	sy
20000532:	f8b4 227e 	ldrh.w	r2, [r4, #638]	@ 0x27e
20000536:	f8b4 327c 	ldrh.w	r3, [r4, #636]	@ 0x27c
2000053a:	1a9b      	subs	r3, r3, r2
2000053c:	f100 809a 	bmi.w	20000674 <dvi_dma_irq_handler+0x228>
20000540:	2b00      	cmp	r3, #0
20000542:	f000 809e 	beq.w	20000682 <dvi_dma_irq_handler+0x236>
20000546:	f8b4 0282 	ldrh.w	r0, [r4, #642]	@ 0x282
2000054a:	1c53      	adds	r3, r2, #1
2000054c:	b29b      	uxth	r3, r3
2000054e:	4298      	cmp	r0, r3
20000550:	bf38      	it	cc
20000552:	2300      	movcc	r3, #0
20000554:	e9d4 059d 	ldrd	r0, r5, [r4, #628]	@ 0x274
20000558:	f855 6022 	ldr.w	r6, [r5, r2, lsl #2]
2000055c:	f8a4 327e 	strh.w	r3, [r4, #638]	@ 0x27e
20000560:	e8c0 cf8f 	stlb	ip, [r0]
20000564:	f381 8810 	msr	PRIMASK, r1
20000568:	bf40      	sev
2000056a:	f8d4 3284 	ldr.w	r3, [r4, #644]	@ 0x284
2000056e:	f3ef 8010 	mrs	r0, PRIMASK
20000572:	b672      	cpsid	i
20000574:	e8d3 1fcf 	ldaexb	r1, [r3]
20000578:	2201      	movs	r2, #1
2000057a:	2900      	cmp	r1, #0
2000057c:	d1fa      	bne.n	20000574 <dvi_dma_irq_handler+0x128>
2000057e:	e8c3 2f41 	strexb	r1, r2, [r3]
20000582:	2900      	cmp	r1, #0
20000584:	d1f6      	bne.n	20000574 <dvi_dma_irq_handler+0x128>
20000586:	f3bf 8f5f 	dmb	sy
2000058a:	f8b4 228c 	ldrh.w	r2, [r4, #652]	@ 0x28c
2000058e:	f8b4 328e 	ldrh.w	r3, [r4, #654]	@ 0x28e
20000592:	f8b4 1292 	ldrh.w	r1, [r4, #658]	@ 0x292
20000596:	1ad3      	subs	r3, r2, r3
20000598:	f8d4 5284 	ldr.w	r5, [r4, #644]	@ 0x284
2000059c:	f100 811f 	bmi.w	200007de <dvi_dma_irq_handler+0x392>
200005a0:	428b      	cmp	r3, r1
200005a2:	f000 8122 	beq.w	200007ea <dvi_dma_irq_handler+0x39e>
200005a6:	1c53      	adds	r3, r2, #1
200005a8:	b29b      	uxth	r3, r3
200005aa:	f8d4 7288 	ldr.w	r7, [r4, #648]	@ 0x288
200005ae:	4299      	cmp	r1, r3
200005b0:	f847 6022 	str.w	r6, [r7, r2, lsl #2]
200005b4:	bf2c      	ite	cs
200005b6:	f8a4 328c 	strhcs.w	r3, [r4, #652]	@ 0x28c
200005ba:	f8a4 c28c 	strhcc.w	ip, [r4, #652]	@ 0x28c
200005be:	e8c5 cf8f 	stlb	ip, [r5]
200005c2:	f380 8810 	msr	PRIMASK, r0
200005c6:	bf40      	sev
200005c8:	f8d4 3270 	ldr.w	r3, [r4, #624]	@ 0x270
200005cc:	3b01      	subs	r3, #1
200005ce:	f8c4 3270 	str.w	r3, [r4, #624]	@ 0x270
200005d2:	2b00      	cmp	r3, #0
200005d4:	d19d      	bne.n	20000512 <dvi_dma_irq_handler+0xc6>
200005d6:	f894 3038 	ldrb.w	r3, [r4, #56]	@ 0x38
200005da:	2b03      	cmp	r3, #3
200005dc:	d05b      	beq.n	20000696 <dvi_dma_irq_handler+0x24a>
200005de:	2b01      	cmp	r3, #1
200005e0:	f000 8109 	beq.w	200007f6 <dvi_dma_irq_handler+0x3aa>
200005e4:	2704      	movs	r7, #4
200005e6:	6863      	ldr	r3, [r4, #4]
200005e8:	f8df 9084 	ldr.w	r9, [pc, #132]	@ 20000670 <dvi_dma_irq_handler+0x224>
200005ec:	f8df e07c 	ldr.w	lr, [pc, #124]	@ 2000066c <dvi_dma_irq_handler+0x220>
200005f0:	ea09 3c43 	and.w	ip, r9, r3, lsl #13
200005f4:	019b      	lsls	r3, r3, #6
200005f6:	f103 41a0 	add.w	r1, r3, #1342177280	@ 0x50000000
200005fa:	68a3      	ldr	r3, [r4, #8]
200005fc:	ea4c 0c0e 	orr.w	ip, ip, lr
20000600:	019b      	lsls	r3, r3, #6
20000602:	f103 46a0 	add.w	r6, r3, #1342177280	@ 0x50000000
20000606:	e9d4 2305 	ldrd	r2, r3, [r4, #20]
2000060a:	019b      	lsls	r3, r3, #6
2000060c:	ea09 3842 	and.w	r8, r9, r2, lsl #13
20000610:	f103 45a0 	add.w	r5, r3, #1342177280	@ 0x50000000
20000614:	e9d4 3009 	ldrd	r3, r0, [r4, #36]	@ 0x24
20000618:	ea09 3943 	and.w	r9, r9, r3, lsl #13
2000061c:	0192      	lsls	r2, r2, #6
2000061e:	ea48 080e 	orr.w	r8, r8, lr
20000622:	ea49 090e 	orr.w	r9, r9, lr
20000626:	f104 0ee8 	add.w	lr, r4, #232	@ 0xe8
2000062a:	f8c1 e000 	str.w	lr, [r1]
2000062e:	f102 42a0 	add.w	r2, r2, #1342177280	@ 0x50000000
20000632:	604e      	str	r6, [r1, #4]
20000634:	0180      	lsls	r0, r0, #6
20000636:	608f      	str	r7, [r1, #8]
20000638:	019b      	lsls	r3, r3, #6
2000063a:	f8c1 c010 	str.w	ip, [r1, #16]
2000063e:	f504 7194 	add.w	r1, r4, #296	@ 0x128
20000642:	6011      	str	r1, [r2, #0]
20000644:	f100 40a0 	add.w	r0, r0, #1342177280	@ 0x50000000
20000648:	f103 43a0 	add.w	r3, r3, #1342177280	@ 0x50000000
2000064c:	6055      	str	r5, [r2, #4]
2000064e:	f504 74a4 	add.w	r4, r4, #328	@ 0x148
20000652:	6097      	str	r7, [r2, #8]
20000654:	f8c2 8010 	str.w	r8, [r2, #16]
20000658:	601c      	str	r4, [r3, #0]
2000065a:	6058      	str	r0, [r3, #4]
2000065c:	609f      	str	r7, [r3, #8]
2000065e:	f8c3 9010 	str.w	r9, [r3, #16]
20000662:	e8bd 87f0 	ldmia.w	sp!, {r4, r5, r6, r7, r8, r9, sl, pc}
20000666:	bf00      	nop
20000668:	50000800 	.word	0x50000800
2000066c:	007e1459 	.word	0x007e1459
20000670:	fc7ffffd 	.word	0xfc7ffffd
20000674:	f8b4 0282 	ldrh.w	r0, [r4, #642]	@ 0x282
20000678:	3001      	adds	r0, #1
2000067a:	4403      	add	r3, r0
2000067c:	2b00      	cmp	r3, #0
2000067e:	f47f af62 	bne.w	20000546 <dvi_dma_irq_handler+0xfa>
20000682:	f8d4 2274 	ldr.w	r2, [r4, #628]	@ 0x274
20000686:	e8c2 3f8f 	stlb	r3, [r2]
2000068a:	f381 8810 	msr	PRIMASK, r1
2000068e:	f894 3038 	ldrb.w	r3, [r4, #56]	@ 0x38
20000692:	2b03      	cmp	r3, #3
20000694:	d1a3      	bne.n	200005de <dvi_dma_irq_handler+0x192>
20000696:	f8d4 3274 	ldr.w	r3, [r4, #628]	@ 0x274
2000069a:	f3ef 8110 	mrs	r1, PRIMASK
2000069e:	b672      	cpsid	i
200006a0:	e8d3 0fcf 	ldaexb	r0, [r3]
200006a4:	2201      	movs	r2, #1
200006a6:	2800      	cmp	r0, #0
200006a8:	d1fa      	bne.n	200006a0 <dvi_dma_irq_handler+0x254>
200006aa:	e8c3 2f40 	strexb	r0, r2, [r3]
200006ae:	2800      	cmp	r0, #0
200006b0:	d1f6      	bne.n	200006a0 <dvi_dma_irq_handler+0x254>
200006b2:	f3bf 8f5f 	dmb	sy
200006b6:	f8b4 327c 	ldrh.w	r3, [r4, #636]	@ 0x27c
200006ba:	f8b4 227e 	ldrh.w	r2, [r4, #638]	@ 0x27e
200006be:	1a9b      	subs	r3, r3, r2
200006c0:	f100 8128 	bmi.w	20000914 <dvi_dma_irq_handler+0x4c8>
200006c4:	f8d4 2274 	ldr.w	r2, [r4, #628]	@ 0x274
200006c8:	2b00      	cmp	r3, #0
200006ca:	f000 80d3 	beq.w	20000874 <dvi_dma_irq_handler+0x428>
200006ce:	2600      	movs	r6, #0
200006d0:	e8c2 6f8f 	stlb	r6, [r2]
200006d4:	f381 8810 	msr	PRIMASK, r1
200006d8:	f8d4 3274 	ldr.w	r3, [r4, #628]	@ 0x274
200006dc:	f3ef 8510 	mrs	r5, PRIMASK
200006e0:	b672      	cpsid	i
200006e2:	e8d3 1fcf 	ldaexb	r1, [r3]
200006e6:	2201      	movs	r2, #1
200006e8:	2900      	cmp	r1, #0
200006ea:	d1fa      	bne.n	200006e2 <dvi_dma_irq_handler+0x296>
200006ec:	e8c3 2f41 	strexb	r1, r2, [r3]
200006f0:	2900      	cmp	r1, #0
200006f2:	d1f6      	bne.n	200006e2 <dvi_dma_irq_handler+0x296>
200006f4:	f3bf 8f5f 	dmb	sy
200006f8:	f8b4 227e 	ldrh.w	r2, [r4, #638]	@ 0x27e
200006fc:	f8b4 327c 	ldrh.w	r3, [r4, #636]	@ 0x27c
20000700:	1a9b      	subs	r3, r3, r2
20000702:	2b00      	cmp	r3, #0
20000704:	f2c0 810b 	blt.w	2000091e <dvi_dma_irq_handler+0x4d2>
20000708:	f8d4 0274 	ldr.w	r0, [r4, #628]	@ 0x274
2000070c:	f000 810f 	beq.w	2000092e <dvi_dma_irq_handler+0x4e2>
20000710:	f8b4 1282 	ldrh.w	r1, [r4, #642]	@ 0x282
20000714:	1c53      	adds	r3, r2, #1
20000716:	b29b      	uxth	r3, r3
20000718:	4299      	cmp	r1, r3
2000071a:	bf38      	it	cc
2000071c:	2300      	movcc	r3, #0
2000071e:	f8d4 1278 	ldr.w	r1, [r4, #632]	@ 0x278
20000722:	f851 1022 	ldr.w	r1, [r1, r2, lsl #2]
20000726:	2200      	movs	r2, #0
20000728:	f8a4 327e 	strh.w	r3, [r4, #638]	@ 0x27e
2000072c:	e8c0 2f8f 	stlb	r2, [r0]
20000730:	f385 8810 	msr	PRIMASK, r5
20000734:	bf40      	sev
20000736:	f894 3038 	ldrb.w	r3, [r4, #56]	@ 0x38
2000073a:	f8c4 1268 	str.w	r1, [r4, #616]	@ 0x268
2000073e:	2b01      	cmp	r3, #1
20000740:	d059      	beq.n	200007f6 <dvi_dma_irq_handler+0x3aa>
20000742:	2b03      	cmp	r3, #3
20000744:	f47f af4e 	bne.w	200005e4 <dvi_dma_irq_handler+0x198>
20000748:	2900      	cmp	r1, #0
2000074a:	f000 80a3 	beq.w	20000894 <dvi_dma_irq_handler+0x448>
2000074e:	2604      	movs	r6, #4
20000750:	f504 78b4 	add.w	r8, r4, #360	@ 0x168
20000754:	4642      	mov	r2, r8
20000756:	6820      	ldr	r0, [r4, #0]
20000758:	f000 f934 	bl	200009c4 <dvi_update_scanline_data_dma>
2000075c:	e9d4 1301 	ldrd	r1, r3, [r4, #4]
20000760:	f8df c1e0 	ldr.w	ip, [pc, #480]	@ 20000944 <dvi_dma_irq_handler+0x4f8>
20000764:	4f75      	ldr	r7, [pc, #468]	@ (2000093c <dvi_dma_irq_handler+0x4f0>)
20000766:	019b      	lsls	r3, r3, #6
20000768:	ea0c 3941 	and.w	r9, ip, r1, lsl #13
2000076c:	0189      	lsls	r1, r1, #6
2000076e:	f101 41a0 	add.w	r1, r1, #1342177280	@ 0x50000000
20000772:	f103 4ea0 	add.w	lr, r3, #1342177280	@ 0x50000000
20000776:	ea49 0907 	orr.w	r9, r9, r7
2000077a:	e9d4 2305 	ldrd	r2, r3, [r4, #20]
2000077e:	019b      	lsls	r3, r3, #6
20000780:	f103 45a0 	add.w	r5, r3, #1342177280	@ 0x50000000
20000784:	e9d4 3009 	ldrd	r3, r0, [r4, #36]	@ 0x24
20000788:	f8c1 8000 	str.w	r8, [r1]
2000078c:	f8c1 e004 	str.w	lr, [r1, #4]
20000790:	608e      	str	r6, [r1, #8]
20000792:	ea0c 3e42 	and.w	lr, ip, r2, lsl #13
20000796:	f8c1 9010 	str.w	r9, [r1, #16]
2000079a:	0192      	lsls	r2, r2, #6
2000079c:	ea0c 3143 	and.w	r1, ip, r3, lsl #13
200007a0:	f102 42a0 	add.w	r2, r2, #1342177280	@ 0x50000000
200007a4:	ea4e 0e07 	orr.w	lr, lr, r7
200007a8:	4339      	orrs	r1, r7
200007aa:	0180      	lsls	r0, r0, #6
200007ac:	019b      	lsls	r3, r3, #6
200007ae:	f504 77d4 	add.w	r7, r4, #424	@ 0x1a8
200007b2:	6017      	str	r7, [r2, #0]
200007b4:	f103 43a0 	add.w	r3, r3, #1342177280	@ 0x50000000
200007b8:	6055      	str	r5, [r2, #4]
200007ba:	f100 40a0 	add.w	r0, r0, #1342177280	@ 0x50000000
200007be:	6096      	str	r6, [r2, #8]
200007c0:	f8c2 e010 	str.w	lr, [r2, #16]
200007c4:	f504 72e4 	add.w	r2, r4, #456	@ 0x1c8
200007c8:	601a      	str	r2, [r3, #0]
200007ca:	6058      	str	r0, [r3, #4]
200007cc:	609e      	str	r6, [r3, #8]
200007ce:	6119      	str	r1, [r3, #16]
200007d0:	6e63      	ldr	r3, [r4, #100]	@ 0x64
200007d2:	2b00      	cmp	r3, #0
200007d4:	f43f af45 	beq.w	20000662 <dvi_dma_irq_handler+0x216>
200007d8:	e8bd 47f0 	ldmia.w	sp!, {r4, r5, r6, r7, r8, r9, sl, lr}
200007dc:	4718      	bx	r3
200007de:	f101 0e01 	add.w	lr, r1, #1
200007e2:	4473      	add	r3, lr
200007e4:	4299      	cmp	r1, r3
200007e6:	f47f aede 	bne.w	200005a6 <dvi_dma_irq_handler+0x15a>
200007ea:	e8c5 cf8f 	stlb	ip, [r5]
200007ee:	f380 8810 	msr	PRIMASK, r0
200007f2:	bf20      	wfe
200007f4:	e6b9      	b.n	2000056a <dvi_dma_irq_handler+0x11e>
200007f6:	2704      	movs	r7, #4
200007f8:	6863      	ldr	r3, [r4, #4]
200007fa:	f8df 9148 	ldr.w	r9, [pc, #328]	@ 20000944 <dvi_dma_irq_handler+0x4f8>
200007fe:	f8df e13c 	ldr.w	lr, [pc, #316]	@ 2000093c <dvi_dma_irq_handler+0x4f0>
20000802:	ea09 3c43 	and.w	ip, r9, r3, lsl #13
20000806:	019b      	lsls	r3, r3, #6
20000808:	f103 41a0 	add.w	r1, r3, #1342177280	@ 0x50000000
2000080c:	68a3      	ldr	r3, [r4, #8]
2000080e:	ea4c 0c0e 	orr.w	ip, ip, lr
20000812:	019b      	lsls	r3, r3, #6
20000814:	f103 46a0 	add.w	r6, r3, #1342177280	@ 0x50000000
20000818:	e9d4 2305 	ldrd	r2, r3, [r4, #20]
2000081c:	019b      	lsls	r3, r3, #6
2000081e:	ea09 3842 	and.w	r8, r9, r2, lsl #13
20000822:	f103 45a0 	add.w	r5, r3, #1342177280	@ 0x50000000
20000826:	e9d4 3009 	ldrd	r3, r0, [r4, #36]	@ 0x24
2000082a:	ea09 3943 	and.w	r9, r9, r3, lsl #13
2000082e:	0192      	lsls	r2, r2, #6
20000830:	ea48 080e 	orr.w	r8, r8, lr
20000834:	ea49 090e 	orr.w	r9, r9, lr
20000838:	f104 0e68 	add.w	lr, r4, #104	@ 0x68
2000083c:	f8c1 e000 	str.w	lr, [r1]
20000840:	f102 42a0 	add.w	r2, r2, #1342177280	@ 0x50000000
20000844:	604e      	str	r6, [r1, #4]
20000846:	0180      	lsls	r0, r0, #6
20000848:	608f      	str	r7, [r1, #8]
2000084a:	019b      	lsls	r3, r3, #6
2000084c:	f8c1 c010 	str.w	ip, [r1, #16]
20000850:	f104 01a8 	add.w	r1, r4, #168	@ 0xa8
20000854:	6011      	str	r1, [r2, #0]
20000856:	f100 40a0 	add.w	r0, r0, #1342177280	@ 0x50000000
2000085a:	f103 43a0 	add.w	r3, r3, #1342177280	@ 0x50000000
2000085e:	6055      	str	r5, [r2, #4]
20000860:	34c8      	adds	r4, #200	@ 0xc8
20000862:	e6f6      	b.n	20000652 <dvi_dma_irq_handler+0x206>
20000864:	2300      	movs	r3, #0
20000866:	e8c0 3f8f 	stlb	r3, [r0]
2000086a:	f385 8810 	msr	PRIMASK, r5
2000086e:	4834      	ldr	r0, [pc, #208]	@ (20000940 <dvi_dma_irq_handler+0x4f4>)
20000870:	f000 f8da 	bl	20000a28 <__panic_veneer>
20000874:	e8c2 3f8f 	stlb	r3, [r2]
20000878:	f381 8810 	msr	PRIMASK, r1
2000087c:	f8d4 3270 	ldr.w	r3, [r4, #624]	@ 0x270
20000880:	f894 2038 	ldrb.w	r2, [r4, #56]	@ 0x38
20000884:	3301      	adds	r3, #1
20000886:	2a01      	cmp	r2, #1
20000888:	f8c4 3270 	str.w	r3, [r4, #624]	@ 0x270
2000088c:	d0b3      	beq.n	200007f6 <dvi_dma_irq_handler+0x3aa>
2000088e:	2a03      	cmp	r2, #3
20000890:	f47f aea8 	bne.w	200005e4 <dvi_dma_irq_handler+0x198>
20000894:	2704      	movs	r7, #4
20000896:	6863      	ldr	r3, [r4, #4]
20000898:	f8df 90a8 	ldr.w	r9, [pc, #168]	@ 20000944 <dvi_dma_irq_handler+0x4f8>
2000089c:	f8df e09c 	ldr.w	lr, [pc, #156]	@ 2000093c <dvi_dma_irq_handler+0x4f0>
200008a0:	ea09 3c43 	and.w	ip, r9, r3, lsl #13
200008a4:	019b      	lsls	r3, r3, #6
200008a6:	f103 41a0 	add.w	r1, r3, #1342177280	@ 0x50000000
200008aa:	68a3      	ldr	r3, [r4, #8]
200008ac:	ea4c 0c0e 	orr.w	ip, ip, lr
200008b0:	019b      	lsls	r3, r3, #6
200008b2:	f103 46a0 	add.w	r6, r3, #1342177280	@ 0x50000000
200008b6:	e9d4 2305 	ldrd	r2, r3, [r4, #20]
200008ba:	019b      	lsls	r3, r3, #6
200008bc:	ea09 3842 	and.w	r8, r9, r2, lsl #13
200008c0:	f103 45a0 	add.w	r5, r3, #1342177280	@ 0x50000000
200008c4:	e9d4 3009 	ldrd	r3, r0, [r4, #36]	@ 0x24
200008c8:	ea09 3943 	and.w	r9, r9, r3, lsl #13
200008cc:	ea48 080e 	orr.w	r8, r8, lr
200008d0:	ea49 090e 	orr.w	r9, r9, lr
200008d4:	0192      	lsls	r2, r2, #6
200008d6:	f504 7ef4 	add.w	lr, r4, #488	@ 0x1e8
200008da:	f8c1 e000 	str.w	lr, [r1]
200008de:	f102 42a0 	add.w	r2, r2, #1342177280	@ 0x50000000
200008e2:	604e      	str	r6, [r1, #4]
200008e4:	0180      	lsls	r0, r0, #6
200008e6:	608f      	str	r7, [r1, #8]
200008e8:	019b      	lsls	r3, r3, #6
200008ea:	f8c1 c010 	str.w	ip, [r1, #16]
200008ee:	f504 710a 	add.w	r1, r4, #552	@ 0x228
200008f2:	6011      	str	r1, [r2, #0]
200008f4:	f103 43a0 	add.w	r3, r3, #1342177280	@ 0x50000000
200008f8:	6055      	str	r5, [r2, #4]
200008fa:	f100 40a0 	add.w	r0, r0, #1342177280	@ 0x50000000
200008fe:	6097      	str	r7, [r2, #8]
20000900:	f8c2 8010 	str.w	r8, [r2, #16]
20000904:	f504 7212 	add.w	r2, r4, #584	@ 0x248
20000908:	601a      	str	r2, [r3, #0]
2000090a:	6058      	str	r0, [r3, #4]
2000090c:	609f      	str	r7, [r3, #8]
2000090e:	f8c3 9010 	str.w	r9, [r3, #16]
20000912:	e75d      	b.n	200007d0 <dvi_dma_irq_handler+0x384>
20000914:	f8b4 2282 	ldrh.w	r2, [r4, #642]	@ 0x282
20000918:	3201      	adds	r2, #1
2000091a:	4413      	add	r3, r2
2000091c:	e6d2      	b.n	200006c4 <dvi_dma_irq_handler+0x278>
2000091e:	f8b4 1282 	ldrh.w	r1, [r4, #642]	@ 0x282
20000922:	f8d4 0274 	ldr.w	r0, [r4, #628]	@ 0x274
20000926:	1c4f      	adds	r7, r1, #1
20000928:	42df      	cmn	r7, r3
2000092a:	f47f aef3 	bne.w	20000714 <dvi_dma_irq_handler+0x2c8>
2000092e:	e8c0 6f8f 	stlb	r6, [r0]
20000932:	f385 8810 	msr	PRIMASK, r5
20000936:	bf20      	wfe
20000938:	e6ce      	b.n	200006d8 <dvi_dma_irq_handler+0x28c>
2000093a:	bf00      	nop
2000093c:	007e1459 	.word	0x007e1459
20000940:	100049dc 	.word	0x100049dc
20000944:	fc7ffffd 	.word	0xfc7ffffd

20000948 <dvi_dma1_irq>:
20000948:	2301      	movs	r3, #1
2000094a:	f04f 42a0 	mov.w	r2, #1342177280	@ 0x50000000
2000094e:	4904      	ldr	r1, [pc, #16]	@ (20000960 <dvi_dma1_irq+0x18>)
20000950:	6848      	ldr	r0, [r1, #4]
20000952:	6881      	ldr	r1, [r0, #8]
20000954:	408b      	lsls	r3, r1
20000956:	f8c2 341c 	str.w	r3, [r2, #1052]	@ 0x41c
2000095a:	f7ff bd77 	b.w	2000044c <dvi_dma_irq_handler>
2000095e:	bf00      	nop
20000960:	20005720 	.word	0x20005720

20000964 <dvi_dma0_irq>:
20000964:	2301      	movs	r3, #1
20000966:	f04f 42a0 	mov.w	r2, #1342177280	@ 0x50000000
2000096a:	4904      	ldr	r1, [pc, #16]	@ (2000097c <dvi_dma0_irq+0x18>)
2000096c:	6808      	ldr	r0, [r1, #0]
2000096e:	6881      	ldr	r1, [r0, #8]
20000970:	408b      	lsls	r3, r1
20000972:	f8c2 340c 	str.w	r3, [r2, #1036]	@ 0x40c
20000976:	f7ff bd69 	b.w	2000044c <dvi_dma_irq_handler>
2000097a:	bf00      	nop
2000097c:	20005720 	.word	0x20005720

20000980 <dvi_timing_state_advance>:
20000980:	680b      	ldr	r3, [r1, #0]
20000982:	790a      	ldrb	r2, [r1, #4]
20000984:	3301      	adds	r3, #1
20000986:	600b      	str	r3, [r1, #0]
20000988:	b91a      	cbnz	r2, 20000992 <dvi_timing_state_advance+0x12>
2000098a:	6980      	ldr	r0, [r0, #24]
2000098c:	4283      	cmp	r3, r0
2000098e:	d005      	beq.n	2000099c <dvi_timing_state_advance+0x1c>
20000990:	4770      	bx	lr
20000992:	2a01      	cmp	r2, #1
20000994:	d109      	bne.n	200009aa <dvi_timing_state_advance+0x2a>
20000996:	69c0      	ldr	r0, [r0, #28]
20000998:	4283      	cmp	r3, r0
2000099a:	d1f9      	bne.n	20000990 <dvi_timing_state_advance+0x10>
2000099c:	2300      	movs	r3, #0
2000099e:	3201      	adds	r2, #1
200009a0:	f002 0203 	and.w	r2, r2, #3
200009a4:	710a      	strb	r2, [r1, #4]
200009a6:	600b      	str	r3, [r1, #0]
200009a8:	4770      	bx	lr
200009aa:	2a02      	cmp	r2, #2
200009ac:	d103      	bne.n	200009b6 <dvi_timing_state_advance+0x36>
200009ae:	6a00      	ldr	r0, [r0, #32]
200009b0:	4283      	cmp	r3, r0
200009b2:	d0f3      	beq.n	2000099c <dvi_timing_state_advance+0x1c>
200009b4:	4770      	bx	lr
200009b6:	2a03      	cmp	r2, #3
200009b8:	d1ea      	bne.n	20000990 <dvi_timing_state_advance+0x10>
200009ba:	6a40      	ldr	r0, [r0, #36]	@ 0x24
200009bc:	4283      	cmp	r3, r0
200009be:	d0ed      	beq.n	2000099c <dvi_timing_state_advance+0x1c>
200009c0:	4770      	bx	lr
200009c2:	bf00      	nop

200009c4 <dvi_update_scanline_data_dma>:
200009c4:	6903      	ldr	r3, [r0, #16]
200009c6:	6311      	str	r1, [r2, #48]	@ 0x30
200009c8:	0858      	lsrs	r0, r3, #1
200009ca:	eb01 0080 	add.w	r0, r1, r0, lsl #2
200009ce:	eb01 0383 	add.w	r3, r1, r3, lsl #2
200009d2:	6510      	str	r0, [r2, #80]	@ 0x50
200009d4:	6713      	str	r3, [r2, #112]	@ 0x70
200009d6:	4770      	bx	lr

200009d8 <__sleep_ms_veneer>:
200009d8:	f85f f000 	ldr.w	pc, [pc]	@ 200009dc <__sleep_ms_veneer+0x4>
200009dc:	10002335 	.word	0x10002335

200009e0 <__text_init_veneer>:
200009e0:	f85f f000 	ldr.w	pc, [pc]	@ 200009e4 <__text_init_veneer+0x4>
200009e4:	10001761 	.word	0x10001761

200009e8 <__next_striped_spin_lock_num_veneer>:
200009e8:	f85f f000 	ldr.w	pc, [pc]	@ 200009ec <__next_striped_spin_lock_num_veneer+0x4>
200009ec:	10001b7d 	.word	0x10001b7d

200009f0 <__irq_set_exclusive_handler_veneer>:
200009f0:	f85f f000 	ldr.w	pc, [pc]	@ 200009f4 <__irq_set_exclusive_handler_veneer+0x4>
200009f4:	10001c49 	.word	0x10001c49

200009f8 <__gpio_init_veneer>:
200009f8:	f85f f000 	ldr.w	pc, [pc]	@ 200009fc <__gpio_init_veneer+0x4>
200009fc:	100019d9 	.word	0x100019d9

20000a00 <__data_receive_veneer>:
20000a00:	f85f f000 	ldr.w	pc, [pc]	@ 20000a04 <__data_receive_veneer+0x4>
20000a04:	100002f5 	.word	0x100002f5

20000a08 <__gpio_set_pulls_veneer>:
20000a08:	f85f f000 	ldr.w	pc, [pc]	@ 20000a0c <__gpio_set_pulls_veneer+0x4>
20000a0c:	10001991 	.word	0x10001991

20000a10 <__memset_veneer>:
20000a10:	f85f f000 	ldr.w	pc, [pc]	@ 20000a14 <__memset_veneer+0x4>
20000a14:	10003d11 	.word	0x10003d11

20000a18 <__set_sys_clock_pll_veneer>:
20000a18:	f85f f000 	ldr.w	pc, [pc]	@ 20000a1c <__set_sys_clock_pll_veneer+0x4>
20000a1c:	10002691 	.word	0x10002691

20000a20 <__multicore_launch_core1_veneer>:
20000a20:	f85f f000 	ldr.w	pc, [pc]	@ 20000a24 <__multicore_launch_core1_veneer+0x4>
20000a24:	10003169 	.word	0x10003169

20000a28 <__panic_veneer>:
20000a28:	f85f f000 	ldr.w	pc, [pc]	@ 20000a2c <__panic_veneer+0x4>
20000a2c:	10001a21 	.word	0x10001a21

20000a30 <__bus_interface_program_init_veneer>:
20000a30:	f85f f000 	ldr.w	pc, [pc]	@ 20000a34 <__bus_interface_program_init_veneer+0x4>
20000a34:	100004bd 	.word	0x100004bd

20000a38 <__dvi_init_veneer>:
20000a38:	f85f f000 	ldr.w	pc, [pc]	@ 20000a3c <__dvi_init_veneer+0x4>
20000a3c:	100031ad 	.word	0x100031ad

20000a40 <__best_effort_wfe_or_timeout_veneer>:
20000a40:	f85f f000 	ldr.w	pc, [pc]	@ 20000a44 <__best_effort_wfe_or_timeout_veneer+0x4>
20000a44:	10002361 	.word	0x10002361

20000a48 <__check_sys_clock_khz_veneer>:
20000a48:	f85f f000 	ldr.w	pc, [pc]	@ 20000a4c <__check_sys_clock_khz_veneer+0x4>
20000a4c:	10002815 	.word	0x10002815

20000a50 <__pio_add_program_veneer>:
20000a50:	f85f f000 	ldr.w	pc, [pc]	@ 20000a54 <__pio_add_program_veneer+0x4>
20000a54:	10003a11 	.word	0x10003a11

20000a58 <__vreg_set_voltage_veneer>:
20000a58:	f85f f000 	ldr.w	pc, [pc]	@ 20000a5c <__vreg_set_voltage_veneer+0x4>
20000a5c:	10002a3d 	.word	0x10002a3d

20000a60 <__irq_set_enabled_veneer>:
20000a60:	f85f f000 	ldr.w	pc, [pc]	@ 20000a64 <__irq_set_enabled_veneer+0x4>
20000a64:	10001bfd 	.word	0x10001bfd

20000a68 <empty_scanline_tmds>:
20000a68:	0007fd00 0007fd00 000bfa01              ............

20000a74 <dvi_ctrl_syms>:
20000a74:	000d5354 0002acab 00055154 000aaeab     TS......TQ......

20000a84 <dvi_timing_640x480p_60hz>:
20000a84:	00000000 00000010 00000060 00000030     ........`...0...
20000a94:	00000280 00000000 0000000a 00000002     ................
20000aa4:	00000021 000001e0 0003d860              !.......`...

20000ab0 <selected_cmd_first_data>:
20000ab0:	                                         ..

20000ab2 <selected_cmd>:
20000ab2:	                                         ..

20000ab4 <pio>:
20000ab4:	50200000                                .. P

20000ab8 <text_color_fg>:
20000ab8:	                                         8

20000ab9 <text_color_bg>:
20000ab9:	                                         .

20000aba <text_area_h>:
20000aba:	                                         .

20000abb <text_area_w>:
20000abb:	                                         P

20000abc <text_curs_state>:
20000abc:	                                         .

20000abd <text_curs_blink_period>:
20000abd:	                                         .

20000abe <text_curs_vis>:
20000abe:	                                         .

20000abf <text_tab_size>:
20000abf:	                                         .

20000ac0 <font_set_pointer>:
20000ac0:	20005f38                                8_. 

20000ac4 <striped_spin_lock_num>:
20000ac4:	00000010                                ....

20000ac8 <default_alarm_pool>:
	...
20000adc:	20001028                                (.. 

20000ae0 <_impure_ptr>:
20000ae0:	20000ae8 00000000                       ... ....

20000ae8 <_impure_data>:
20000ae8:	00000000 200014ac 20001514 2000157c     ....... ... |.. 
	...
20000b80:	00000001 00000000 abcd330e e66d1234     .........3..4.m.
20000b90:	0005deec 0000000b 00000000 00000000     ................
	...

20000c08 <__malloc_av_>:
	...
20000c10:	20000c08 20000c08 20000c10 20000c10     ... ... ... ... 
20000c20:	20000c18 20000c18 20000c20 20000c20     ... ...  ..  .. 
20000c30:	20000c28 20000c28 20000c30 20000c30     (.. (.. 0.. 0.. 
20000c40:	20000c38 20000c38 20000c40 20000c40     8.. 8.. @.. @.. 
20000c50:	20000c48 20000c48 20000c50 20000c50     H.. H.. P.. P.. 
20000c60:	20000c58 20000c58 20000c60 20000c60     X.. X.. `.. `.. 
20000c70:	20000c68 20000c68 20000c70 20000c70     h.. h.. p.. p.. 
20000c80:	20000c78 20000c78 20000c80 20000c80     x.. x.. ... ... 
20000c90:	20000c88 20000c88 20000c90 20000c90     ... ... ... ... 
20000ca0:	20000c98 20000c98 20000ca0 20000ca0     ... ... ... ... 
20000cb0:	20000ca8 20000ca8 20000cb0 20000cb0     ... ... ... ... 
20000cc0:	20000cb8 20000cb8 20000cc0 20000cc0     ... ... ... ... 
20000cd0:	20000cc8 20000cc8 20000cd0 20000cd0     ... ... ... ... 
20000ce0:	20000cd8 20000cd8 20000ce0 20000ce0     ... ... ... ... 
20000cf0:	20000ce8 20000ce8 20000cf0 20000cf0     ... ... ... ... 
20000d00:	20000cf8 20000cf8 20000d00 20000d00     ... ... ... ... 
20000d10:	20000d08 20000d08 20000d10 20000d10     ... ... ... ... 
20000d20:	20000d18 20000d18 20000d20 20000d20     ... ...  ..  .. 
20000d30:	20000d28 20000d28 20000d30 20000d30     (.. (.. 0.. 0.. 
20000d40:	20000d38 20000d38 20000d40 20000d40     8.. 8.. @.. @.. 
20000d50:	20000d48 20000d48 20000d50 20000d50     H.. H.. P.. P.. 
20000d60:	20000d58 20000d58 20000d60 20000d60     X.. X.. `.. `.. 
20000d70:	20000d68 20000d68 20000d70 20000d70     h.. h.. p.. p.. 
20000d80:	20000d78 20000d78 20000d80 20000d80     x.. x.. ... ... 
20000d90:	20000d88 20000d88 20000d90 20000d90     ... ... ... ... 
20000da0:	20000d98 20000d98 20000da0 20000da0     ... ... ... ... 
20000db0:	20000da8 20000da8 20000db0 20000db0     ... ... ... ... 
20000dc0:	20000db8 20000db8 20000dc0 20000dc0     ... ... ... ... 
20000dd0:	20000dc8 20000dc8 20000dd0 20000dd0     ... ... ... ... 
20000de0:	20000dd8 20000dd8 20000de0 20000de0     ... ... ... ... 
20000df0:	20000de8 20000de8 20000df0 20000df0     ... ... ... ... 
20000e00:	20000df8 20000df8 20000e00 20000e00     ... ... ... ... 
20000e10:	20000e08 20000e08 20000e10 20000e10     ... ... ... ... 
20000e20:	20000e18 20000e18 20000e20 20000e20     ... ...  ..  .. 
20000e30:	20000e28 20000e28 20000e30 20000e30     (.. (.. 0.. 0.. 
20000e40:	20000e38 20000e38 20000e40 20000e40     8.. 8.. @.. @.. 
20000e50:	20000e48 20000e48 20000e50 20000e50     H.. H.. P.. P.. 
20000e60:	20000e58 20000e58 20000e60 20000e60     X.. X.. `.. `.. 
20000e70:	20000e68 20000e68 20000e70 20000e70     h.. h.. p.. p.. 
20000e80:	20000e78 20000e78 20000e80 20000e80     x.. x.. ... ... 
20000e90:	20000e88 20000e88 20000e90 20000e90     ... ... ... ... 
20000ea0:	20000e98 20000e98 20000ea0 20000ea0     ... ... ... ... 
20000eb0:	20000ea8 20000ea8 20000eb0 20000eb0     ... ... ... ... 
20000ec0:	20000eb8 20000eb8 20000ec0 20000ec0     ... ... ... ... 
20000ed0:	20000ec8 20000ec8 20000ed0 20000ed0     ... ... ... ... 
20000ee0:	20000ed8 20000ed8 20000ee0 20000ee0     ... ... ... ... 
20000ef0:	20000ee8 20000ee8 20000ef0 20000ef0     ... ... ... ... 
20000f00:	20000ef8 20000ef8 20000f00 20000f00     ... ... ... ... 
20000f10:	20000f08 20000f08 20000f10 20000f10     ... ... ... ... 
20000f20:	20000f18 20000f18 20000f20 20000f20     ... ...  ..  .. 
20000f30:	20000f28 20000f28 20000f30 20000f30     (.. (.. 0.. 0.. 
20000f40:	20000f38 20000f38 20000f40 20000f40     8.. 8.. @.. @.. 
20000f50:	20000f48 20000f48 20000f50 20000f50     H.. H.. P.. P.. 
20000f60:	20000f58 20000f58 20000f60 20000f60     X.. X.. `.. `.. 
20000f70:	20000f68 20000f68 20000f70 20000f70     h.. h.. p.. p.. 
20000f80:	20000f78 20000f78 20000f80 20000f80     x.. x.. ... ... 
20000f90:	20000f88 20000f88 20000f90 20000f90     ... ... ... ... 
20000fa0:	20000f98 20000f98 20000fa0 20000fa0     ... ... ... ... 
20000fb0:	20000fa8 20000fa8 20000fb0 20000fb0     ... ... ... ... 
20000fc0:	20000fb8 20000fb8 20000fc0 20000fc0     ... ... ... ... 
20000fd0:	20000fc8 20000fc8 20000fd0 20000fd0     ... ... ... ... 
20000fe0:	20000fd8 20000fd8 20000fe0 20000fe0     ... ... ... ... 
20000ff0:	20000fe8 20000fe8 20000ff0 20000ff0     ... ... ... ... 
20001000:	20000ff8 20000ff8 20001000 20001000     ... ... ... ... 

20001010 <__malloc_sbrk_base>:
20001010:	ffffffff                                ....

20001014 <__malloc_trim_threshold>:
20001014:	00020000                                ....

20001018 <malloc_mutex>:
	...

20001020 <print_mutex>:
	...

Disassembly of section .scratch_x:

20080000 <tmds_encode_font_2bpp>:
20080000:	b5f0      	push	{r4, r5, r6, r7, lr}
20080002:	4644      	mov	r4, r8
20080004:	464d      	mov	r5, r9
20080006:	4656      	mov	r6, sl
20080008:	b470      	push	{r4, r5, r6}
2008000a:	005b      	lsls	r3, r3, #1
2008000c:	4413      	add	r3, r2
2008000e:	469c      	mov	ip, r3
20080010:	4b44      	ldr	r3, [pc, #272]	@ (20080124 <tmds_encode_font_2bpp+0x124>)
20080012:	9f08      	ldr	r7, [sp, #32]
20080014:	46b8      	mov	r8, r7
20080016:	4f44      	ldr	r7, [pc, #272]	@ (20080128 <tmds_encode_font_2bpp+0x128>)
20080018:	46b9      	mov	r9, r7
2008001a:	468a      	mov	sl, r1
2008001c:	e07b      	b.n	20080116 <tmds_encode_font_2bpp+0x116>
2008001e:	4654      	mov	r4, sl
20080020:	cc02      	ldmia	r4!, {r1}
20080022:	46a2      	mov	sl, r4
20080024:	7804      	ldrb	r4, [r0, #0]
20080026:	4444      	add	r4, r8
20080028:	7824      	ldrb	r4, [r4, #0]
2008002a:	0926      	lsrs	r6, r4, #4
2008002c:	00f6      	lsls	r6, r6, #3
2008002e:	0724      	lsls	r4, r4, #28
20080030:	0e64      	lsrs	r4, r4, #25
20080032:	01cd      	lsls	r5, r1, #7
20080034:	401d      	ands	r5, r3
20080036:	444d      	add	r5, r9
20080038:	442c      	add	r4, r5
2008003a:	442e      	add	r6, r5
2008003c:	cc30      	ldmia	r4, {r4, r5}
2008003e:	cec0      	ldmia	r6, {r6, r7}
20080040:	c2f0      	stmia	r2!, {r4, r5, r6, r7}
20080042:	7844      	ldrb	r4, [r0, #1]
20080044:	4444      	add	r4, r8
20080046:	7824      	ldrb	r4, [r4, #0]
20080048:	0926      	lsrs	r6, r4, #4
2008004a:	00f6      	lsls	r6, r6, #3
2008004c:	0724      	lsls	r4, r4, #28
2008004e:	0e64      	lsrs	r4, r4, #25
20080050:	00cd      	lsls	r5, r1, #3
20080052:	401d      	ands	r5, r3
20080054:	444d      	add	r5, r9
20080056:	442c      	add	r4, r5
20080058:	442e      	add	r6, r5
2008005a:	cc30      	ldmia	r4, {r4, r5}
2008005c:	cec0      	ldmia	r6, {r6, r7}
2008005e:	c2f0      	stmia	r2!, {r4, r5, r6, r7}
20080060:	7884      	ldrb	r4, [r0, #2]
20080062:	4444      	add	r4, r8
20080064:	7824      	ldrb	r4, [r4, #0]
20080066:	0926      	lsrs	r6, r4, #4
20080068:	00f6      	lsls	r6, r6, #3
2008006a:	0724      	lsls	r4, r4, #28
2008006c:	0e64      	lsrs	r4, r4, #25
2008006e:	084d      	lsrs	r5, r1, #1
20080070:	401d      	ands	r5, r3
20080072:	444d      	add	r5, r9
20080074:	442c      	add	r4, r5
20080076:	442e      	add	r6, r5
20080078:	cc30      	ldmia	r4, {r4, r5}
2008007a:	cec0      	ldmia	r6, {r6, r7}
2008007c:	c2f0      	stmia	r2!, {r4, r5, r6, r7}
2008007e:	78c4      	ldrb	r4, [r0, #3]
20080080:	4444      	add	r4, r8
20080082:	7824      	ldrb	r4, [r4, #0]
20080084:	0926      	lsrs	r6, r4, #4
20080086:	00f6      	lsls	r6, r6, #3
20080088:	0724      	lsls	r4, r4, #28
2008008a:	0e64      	lsrs	r4, r4, #25
2008008c:	094d      	lsrs	r5, r1, #5
2008008e:	401d      	ands	r5, r3
20080090:	444d      	add	r5, r9
20080092:	442c      	add	r4, r5
20080094:	442e      	add	r6, r5
20080096:	cc30      	ldmia	r4, {r4, r5}
20080098:	cec0      	ldmia	r6, {r6, r7}
2008009a:	c2f0      	stmia	r2!, {r4, r5, r6, r7}
2008009c:	7904      	ldrb	r4, [r0, #4]
2008009e:	4444      	add	r4, r8
200800a0:	7824      	ldrb	r4, [r4, #0]
200800a2:	0926      	lsrs	r6, r4, #4
200800a4:	00f6      	lsls	r6, r6, #3
200800a6:	0724      	lsls	r4, r4, #28
200800a8:	0e64      	lsrs	r4, r4, #25
200800aa:	0a4d      	lsrs	r5, r1, #9
200800ac:	401d      	ands	r5, r3
200800ae:	444d      	add	r5, r9
200800b0:	442c      	add	r4, r5
200800b2:	442e      	add	r6, r5
200800b4:	cc30      	ldmia	r4, {r4, r5}
200800b6:	cec0      	ldmia	r6, {r6, r7}
200800b8:	c2f0      	stmia	r2!, {r4, r5, r6, r7}
200800ba:	7944      	ldrb	r4, [r0, #5]
200800bc:	4444      	add	r4, r8
200800be:	7824      	ldrb	r4, [r4, #0]
200800c0:	0926      	lsrs	r6, r4, #4
200800c2:	00f6      	lsls	r6, r6, #3
200800c4:	0724      	lsls	r4, r4, #28
200800c6:	0e64      	lsrs	r4, r4, #25
200800c8:	0b4d      	lsrs	r5, r1, #13
200800ca:	401d      	ands	r5, r3
200800cc:	444d      	add	r5, r9
200800ce:	442c      	add	r4, r5
200800d0:	442e      	add	r6, r5
200800d2:	cc30      	ldmia	r4, {r4, r5}
200800d4:	cec0      	ldmia	r6, {r6, r7}
200800d6:	c2f0      	stmia	r2!, {r4, r5, r6, r7}
200800d8:	7984      	ldrb	r4, [r0, #6]
200800da:	4444      	add	r4, r8
200800dc:	7824      	ldrb	r4, [r4, #0]
200800de:	0926      	lsrs	r6, r4, #4
200800e0:	00f6      	lsls	r6, r6, #3
200800e2:	0724      	lsls	r4, r4, #28
200800e4:	0e64      	lsrs	r4, r4, #25
200800e6:	0c4d      	lsrs	r5, r1, #17
200800e8:	401d      	ands	r5, r3
200800ea:	444d      	add	r5, r9
200800ec:	442c      	add	r4, r5
200800ee:	442e      	add	r6, r5
200800f0:	cc30      	ldmia	r4, {r4, r5}
200800f2:	cec0      	ldmia	r6, {r6, r7}
200800f4:	c2f0      	stmia	r2!, {r4, r5, r6, r7}
200800f6:	79c4      	ldrb	r4, [r0, #7]
200800f8:	4444      	add	r4, r8
200800fa:	7824      	ldrb	r4, [r4, #0]
200800fc:	0926      	lsrs	r6, r4, #4
200800fe:	00f6      	lsls	r6, r6, #3
20080100:	0724      	lsls	r4, r4, #28
20080102:	0e64      	lsrs	r4, r4, #25
20080104:	0d4d      	lsrs	r5, r1, #21
20080106:	401d      	ands	r5, r3
20080108:	444d      	add	r5, r9
2008010a:	442c      	add	r4, r5
2008010c:	442e      	add	r6, r5
2008010e:	cc30      	ldmia	r4, {r4, r5}
20080110:	cec0      	ldmia	r6, {r6, r7}
20080112:	c2f0      	stmia	r2!, {r4, r5, r6, r7}
20080114:	3008      	adds	r0, #8
20080116:	4562      	cmp	r2, ip
20080118:	d381      	bcc.n	2008001e <tmds_encode_font_2bpp+0x1e>
2008011a:	bc70      	pop	{r4, r5, r6}
2008011c:	46a0      	mov	r8, r4
2008011e:	46a9      	mov	r9, r5
20080120:	46b2      	mov	sl, r6
20080122:	bdf0      	pop	{r4, r5, r6, r7, pc}
20080124:	00000780 	.word	0x00000780
20080128:	2008012c 	.word	0x2008012c

2008012c <palettised_1bpp_tables>:
2008012c:	0007f103 	.word	0x0007f103
20080130:	0007f103 	.word	0x0007f103
20080134:	0007f103 	.word	0x0007f103
20080138:	0007f103 	.word	0x0007f103
2008013c:	0007f103 	.word	0x0007f103
20080140:	0007f103 	.word	0x0007f103
20080144:	0007f103 	.word	0x0007f103
20080148:	0007f103 	.word	0x0007f103
2008014c:	0007f103 	.word	0x0007f103
20080150:	0007f103 	.word	0x0007f103
20080154:	0007f103 	.word	0x0007f103
20080158:	0007f103 	.word	0x0007f103
2008015c:	0007f103 	.word	0x0007f103
20080160:	0007f103 	.word	0x0007f103
20080164:	0007f103 	.word	0x0007f103
20080168:	0007f103 	.word	0x0007f103
2008016c:	0007f103 	.word	0x0007f103
20080170:	0007f103 	.word	0x0007f103
20080174:	0007f103 	.word	0x0007f103
20080178:	0007f103 	.word	0x0007f103
2008017c:	0007f103 	.word	0x0007f103
20080180:	0007f103 	.word	0x0007f103
20080184:	0007f103 	.word	0x0007f103
20080188:	0007f103 	.word	0x0007f103
2008018c:	0007f103 	.word	0x0007f103
20080190:	0007f103 	.word	0x0007f103
20080194:	0007f103 	.word	0x0007f103
20080198:	0007f103 	.word	0x0007f103
2008019c:	0007f103 	.word	0x0007f103
200801a0:	0007f103 	.word	0x0007f103
200801a4:	0007f103 	.word	0x0007f103
200801a8:	0007f103 	.word	0x0007f103
200801ac:	0007f103 	.word	0x0007f103
200801b0:	0007f103 	.word	0x0007f103
200801b4:	0007f130 	.word	0x0007f130
200801b8:	0007f103 	.word	0x0007f103
200801bc:	00073d03 	.word	0x00073d03
200801c0:	0007f103 	.word	0x0007f103
200801c4:	00073d30 	.word	0x00073d30
200801c8:	0007f103 	.word	0x0007f103
200801cc:	0007f103 	.word	0x0007f103
200801d0:	0007f130 	.word	0x0007f130
200801d4:	0007f130 	.word	0x0007f130
200801d8:	0007f130 	.word	0x0007f130
200801dc:	00073d03 	.word	0x00073d03
200801e0:	0007f130 	.word	0x0007f130
200801e4:	00073d30 	.word	0x00073d30
200801e8:	0007f130 	.word	0x0007f130
200801ec:	0007f103 	.word	0x0007f103
200801f0:	00073d03 	.word	0x00073d03
200801f4:	0007f130 	.word	0x0007f130
200801f8:	00073d03 	.word	0x00073d03
200801fc:	00073d03 	.word	0x00073d03
20080200:	00073d03 	.word	0x00073d03
20080204:	00073d30 	.word	0x00073d30
20080208:	00073d03 	.word	0x00073d03
2008020c:	0007f103 	.word	0x0007f103
20080210:	00073d30 	.word	0x00073d30
20080214:	0007f130 	.word	0x0007f130
20080218:	00073d30 	.word	0x00073d30
2008021c:	00073d03 	.word	0x00073d03
20080220:	00073d30 	.word	0x00073d30
20080224:	00073d30 	.word	0x00073d30
20080228:	00073d30 	.word	0x00073d30
2008022c:	0007f103 	.word	0x0007f103
20080230:	0007f103 	.word	0x0007f103
20080234:	0007f230 	.word	0x0007f230
20080238:	0007f103 	.word	0x0007f103
2008023c:	000b3d03 	.word	0x000b3d03
20080240:	0007f103 	.word	0x0007f103
20080244:	000b3e30 	.word	0x000b3e30
20080248:	0007f103 	.word	0x0007f103
2008024c:	0007f103 	.word	0x0007f103
20080250:	0007f230 	.word	0x0007f230
20080254:	0007f230 	.word	0x0007f230
20080258:	0007f230 	.word	0x0007f230
2008025c:	000b3d03 	.word	0x000b3d03
20080260:	0007f230 	.word	0x0007f230
20080264:	000b3e30 	.word	0x000b3e30
20080268:	0007f230 	.word	0x0007f230
2008026c:	0007f103 	.word	0x0007f103
20080270:	000b3d03 	.word	0x000b3d03
20080274:	0007f230 	.word	0x0007f230
20080278:	000b3d03 	.word	0x000b3d03
2008027c:	000b3d03 	.word	0x000b3d03
20080280:	000b3d03 	.word	0x000b3d03
20080284:	000b3e30 	.word	0x000b3e30
20080288:	000b3d03 	.word	0x000b3d03
2008028c:	0007f103 	.word	0x0007f103
20080290:	000b3e30 	.word	0x000b3e30
20080294:	0007f230 	.word	0x0007f230
20080298:	000b3e30 	.word	0x000b3e30
2008029c:	000b3d03 	.word	0x000b3d03
200802a0:	000b3e30 	.word	0x000b3e30
200802a4:	000b3e30 	.word	0x000b3e30
200802a8:	000b3e30 	.word	0x000b3e30
200802ac:	0007f103 	.word	0x0007f103
200802b0:	0007f103 	.word	0x0007f103
200802b4:	0007f203 	.word	0x0007f203
200802b8:	0007f103 	.word	0x0007f103
200802bc:	000bf103 	.word	0x000bf103
200802c0:	0007f103 	.word	0x0007f103
200802c4:	000bf203 	.word	0x000bf203
200802c8:	0007f103 	.word	0x0007f103
200802cc:	0007f103 	.word	0x0007f103
200802d0:	0007f203 	.word	0x0007f203
200802d4:	0007f203 	.word	0x0007f203
200802d8:	0007f203 	.word	0x0007f203
200802dc:	000bf103 	.word	0x000bf103
200802e0:	0007f203 	.word	0x0007f203
200802e4:	000bf203 	.word	0x000bf203
200802e8:	0007f203 	.word	0x0007f203
200802ec:	0007f103 	.word	0x0007f103
200802f0:	000bf103 	.word	0x000bf103
200802f4:	0007f203 	.word	0x0007f203
200802f8:	000bf103 	.word	0x000bf103
200802fc:	000bf103 	.word	0x000bf103
20080300:	000bf103 	.word	0x000bf103
20080304:	000bf203 	.word	0x000bf203
20080308:	000bf103 	.word	0x000bf103
2008030c:	0007f103 	.word	0x0007f103
20080310:	000bf203 	.word	0x000bf203
20080314:	0007f203 	.word	0x0007f203
20080318:	000bf203 	.word	0x000bf203
2008031c:	000bf103 	.word	0x000bf103
20080320:	000bf203 	.word	0x000bf203
20080324:	000bf203 	.word	0x000bf203
20080328:	000bf203 	.word	0x000bf203
2008032c:	00073d30 	.word	0x00073d30
20080330:	00073d30 	.word	0x00073d30
20080334:	00073d03 	.word	0x00073d03
20080338:	00073d30 	.word	0x00073d30
2008033c:	0007f130 	.word	0x0007f130
20080340:	00073d30 	.word	0x00073d30
20080344:	0007f103 	.word	0x0007f103
20080348:	00073d30 	.word	0x00073d30
2008034c:	00073d30 	.word	0x00073d30
20080350:	00073d03 	.word	0x00073d03
20080354:	00073d03 	.word	0x00073d03
20080358:	00073d03 	.word	0x00073d03
2008035c:	0007f130 	.word	0x0007f130
20080360:	00073d03 	.word	0x00073d03
20080364:	0007f103 	.word	0x0007f103
20080368:	00073d03 	.word	0x00073d03
2008036c:	00073d30 	.word	0x00073d30
20080370:	0007f130 	.word	0x0007f130
20080374:	00073d03 	.word	0x00073d03
20080378:	0007f130 	.word	0x0007f130
2008037c:	0007f130 	.word	0x0007f130
20080380:	0007f130 	.word	0x0007f130
20080384:	0007f103 	.word	0x0007f103
20080388:	0007f130 	.word	0x0007f130
2008038c:	00073d30 	.word	0x00073d30
20080390:	0007f103 	.word	0x0007f103
20080394:	00073d03 	.word	0x00073d03
20080398:	0007f103 	.word	0x0007f103
2008039c:	0007f130 	.word	0x0007f130
200803a0:	0007f103 	.word	0x0007f103
200803a4:	0007f103 	.word	0x0007f103
200803a8:	0007f103 	.word	0x0007f103
200803ac:	00073d30 	.word	0x00073d30
200803b0:	00073d30 	.word	0x00073d30
200803b4:	00073d30 	.word	0x00073d30
200803b8:	00073d30 	.word	0x00073d30
200803bc:	00073d30 	.word	0x00073d30
200803c0:	00073d30 	.word	0x00073d30
200803c4:	00073d30 	.word	0x00073d30
200803c8:	00073d30 	.word	0x00073d30
200803cc:	00073d30 	.word	0x00073d30
200803d0:	00073d30 	.word	0x00073d30
200803d4:	00073d30 	.word	0x00073d30
200803d8:	00073d30 	.word	0x00073d30
200803dc:	00073d30 	.word	0x00073d30
200803e0:	00073d30 	.word	0x00073d30
200803e4:	00073d30 	.word	0x00073d30
200803e8:	00073d30 	.word	0x00073d30
200803ec:	00073d30 	.word	0x00073d30
200803f0:	00073d30 	.word	0x00073d30
200803f4:	00073d30 	.word	0x00073d30
200803f8:	00073d30 	.word	0x00073d30
200803fc:	00073d30 	.word	0x00073d30
20080400:	00073d30 	.word	0x00073d30
20080404:	00073d30 	.word	0x00073d30
20080408:	00073d30 	.word	0x00073d30
2008040c:	00073d30 	.word	0x00073d30
20080410:	00073d30 	.word	0x00073d30
20080414:	00073d30 	.word	0x00073d30
20080418:	00073d30 	.word	0x00073d30
2008041c:	00073d30 	.word	0x00073d30
20080420:	00073d30 	.word	0x00073d30
20080424:	00073d30 	.word	0x00073d30
20080428:	00073d30 	.word	0x00073d30
2008042c:	00073d30 	.word	0x00073d30
20080430:	00073d30 	.word	0x00073d30
20080434:	00073e30 	.word	0x00073e30
20080438:	00073d30 	.word	0x00073d30
2008043c:	000b3d30 	.word	0x000b3d30
20080440:	00073d30 	.word	0x00073d30
20080444:	000b3e30 	.word	0x000b3e30
20080448:	00073d30 	.word	0x00073d30
2008044c:	00073d30 	.word	0x00073d30
20080450:	00073e30 	.word	0x00073e30
20080454:	00073e30 	.word	0x00073e30
20080458:	00073e30 	.word	0x00073e30
2008045c:	000b3d30 	.word	0x000b3d30
20080460:	00073e30 	.word	0x00073e30
20080464:	000b3e30 	.word	0x000b3e30
20080468:	00073e30 	.word	0x00073e30
2008046c:	00073d30 	.word	0x00073d30
20080470:	000b3d30 	.word	0x000b3d30
20080474:	00073e30 	.word	0x00073e30
20080478:	000b3d30 	.word	0x000b3d30
2008047c:	000b3d30 	.word	0x000b3d30
20080480:	000b3d30 	.word	0x000b3d30
20080484:	000b3e30 	.word	0x000b3e30
20080488:	000b3d30 	.word	0x000b3d30
2008048c:	00073d30 	.word	0x00073d30
20080490:	000b3e30 	.word	0x000b3e30
20080494:	00073e30 	.word	0x00073e30
20080498:	000b3e30 	.word	0x000b3e30
2008049c:	000b3d30 	.word	0x000b3d30
200804a0:	000b3e30 	.word	0x000b3e30
200804a4:	000b3e30 	.word	0x000b3e30
200804a8:	000b3e30 	.word	0x000b3e30
200804ac:	00073d30 	.word	0x00073d30
200804b0:	00073d30 	.word	0x00073d30
200804b4:	00073e03 	.word	0x00073e03
200804b8:	00073d30 	.word	0x00073d30
200804bc:	000bf130 	.word	0x000bf130
200804c0:	00073d30 	.word	0x00073d30
200804c4:	000bf203 	.word	0x000bf203
200804c8:	00073d30 	.word	0x00073d30
200804cc:	00073d30 	.word	0x00073d30
200804d0:	00073e03 	.word	0x00073e03
200804d4:	00073e03 	.word	0x00073e03
200804d8:	00073e03 	.word	0x00073e03
200804dc:	000bf130 	.word	0x000bf130
200804e0:	00073e03 	.word	0x00073e03
200804e4:	000bf203 	.word	0x000bf203
200804e8:	00073e03 	.word	0x00073e03
200804ec:	00073d30 	.word	0x00073d30
200804f0:	000bf130 	.word	0x000bf130
200804f4:	00073e03 	.word	0x00073e03
200804f8:	000bf130 	.word	0x000bf130
200804fc:	000bf130 	.word	0x000bf130
20080500:	000bf130 	.word	0x000bf130
20080504:	000bf203 	.word	0x000bf203
20080508:	000bf130 	.word	0x000bf130
2008050c:	00073d30 	.word	0x00073d30
20080510:	000bf203 	.word	0x000bf203
20080514:	00073e03 	.word	0x00073e03
20080518:	000bf203 	.word	0x000bf203
2008051c:	000bf130 	.word	0x000bf130
20080520:	000bf203 	.word	0x000bf203
20080524:	000bf203 	.word	0x000bf203
20080528:	000bf203 	.word	0x000bf203
2008052c:	000b3e30 	.word	0x000b3e30
20080530:	000b3e30 	.word	0x000b3e30
20080534:	000b3d03 	.word	0x000b3d03
20080538:	000b3e30 	.word	0x000b3e30
2008053c:	0007f230 	.word	0x0007f230
20080540:	000b3e30 	.word	0x000b3e30
20080544:	0007f103 	.word	0x0007f103
20080548:	000b3e30 	.word	0x000b3e30
2008054c:	000b3e30 	.word	0x000b3e30
20080550:	000b3d03 	.word	0x000b3d03
20080554:	000b3d03 	.word	0x000b3d03
20080558:	000b3d03 	.word	0x000b3d03
2008055c:	0007f230 	.word	0x0007f230
20080560:	000b3d03 	.word	0x000b3d03
20080564:	0007f103 	.word	0x0007f103
20080568:	000b3d03 	.word	0x000b3d03
2008056c:	000b3e30 	.word	0x000b3e30
20080570:	0007f230 	.word	0x0007f230
20080574:	000b3d03 	.word	0x000b3d03
20080578:	0007f230 	.word	0x0007f230
2008057c:	0007f230 	.word	0x0007f230
20080580:	0007f230 	.word	0x0007f230
20080584:	0007f103 	.word	0x0007f103
20080588:	0007f230 	.word	0x0007f230
2008058c:	000b3e30 	.word	0x000b3e30
20080590:	0007f103 	.word	0x0007f103
20080594:	000b3d03 	.word	0x000b3d03
20080598:	0007f103 	.word	0x0007f103
2008059c:	0007f230 	.word	0x0007f230
200805a0:	0007f103 	.word	0x0007f103
200805a4:	0007f103 	.word	0x0007f103
200805a8:	0007f103 	.word	0x0007f103
200805ac:	000b3e30 	.word	0x000b3e30
200805b0:	000b3e30 	.word	0x000b3e30
200805b4:	000b3d30 	.word	0x000b3d30
200805b8:	000b3e30 	.word	0x000b3e30
200805bc:	00073e30 	.word	0x00073e30
200805c0:	000b3e30 	.word	0x000b3e30
200805c4:	00073d30 	.word	0x00073d30
200805c8:	000b3e30 	.word	0x000b3e30
200805cc:	000b3e30 	.word	0x000b3e30
200805d0:	000b3d30 	.word	0x000b3d30
200805d4:	000b3d30 	.word	0x000b3d30
200805d8:	000b3d30 	.word	0x000b3d30
200805dc:	00073e30 	.word	0x00073e30
200805e0:	000b3d30 	.word	0x000b3d30
200805e4:	00073d30 	.word	0x00073d30
200805e8:	000b3d30 	.word	0x000b3d30
200805ec:	000b3e30 	.word	0x000b3e30
200805f0:	00073e30 	.word	0x00073e30
200805f4:	000b3d30 	.word	0x000b3d30
200805f8:	00073e30 	.word	0x00073e30
200805fc:	00073e30 	.word	0x00073e30
20080600:	00073e30 	.word	0x00073e30
20080604:	00073d30 	.word	0x00073d30
20080608:	00073e30 	.word	0x00073e30
2008060c:	000b3e30 	.word	0x000b3e30
20080610:	00073d30 	.word	0x00073d30
20080614:	000b3d30 	.word	0x000b3d30
20080618:	00073d30 	.word	0x00073d30
2008061c:	00073e30 	.word	0x00073e30
20080620:	00073d30 	.word	0x00073d30
20080624:	00073d30 	.word	0x00073d30
20080628:	00073d30 	.word	0x00073d30
2008062c:	000b3e30 	.word	0x000b3e30
20080630:	000b3e30 	.word	0x000b3e30
20080634:	000b3e30 	.word	0x000b3e30
20080638:	000b3e30 	.word	0x000b3e30
2008063c:	000b3e30 	.word	0x000b3e30
20080640:	000b3e30 	.word	0x000b3e30
20080644:	000b3e30 	.word	0x000b3e30
20080648:	000b3e30 	.word	0x000b3e30
2008064c:	000b3e30 	.word	0x000b3e30
20080650:	000b3e30 	.word	0x000b3e30
20080654:	000b3e30 	.word	0x000b3e30
20080658:	000b3e30 	.word	0x000b3e30
2008065c:	000b3e30 	.word	0x000b3e30
20080660:	000b3e30 	.word	0x000b3e30
20080664:	000b3e30 	.word	0x000b3e30
20080668:	000b3e30 	.word	0x000b3e30
2008066c:	000b3e30 	.word	0x000b3e30
20080670:	000b3e30 	.word	0x000b3e30
20080674:	000b3e30 	.word	0x000b3e30
20080678:	000b3e30 	.word	0x000b3e30
2008067c:	000b3e30 	.word	0x000b3e30
20080680:	000b3e30 	.word	0x000b3e30
20080684:	000b3e30 	.word	0x000b3e30
20080688:	000b3e30 	.word	0x000b3e30
2008068c:	000b3e30 	.word	0x000b3e30
20080690:	000b3e30 	.word	0x000b3e30
20080694:	000b3e30 	.word	0x000b3e30
20080698:	000b3e30 	.word	0x000b3e30
2008069c:	000b3e30 	.word	0x000b3e30
200806a0:	000b3e30 	.word	0x000b3e30
200806a4:	000b3e30 	.word	0x000b3e30
200806a8:	000b3e30 	.word	0x000b3e30
200806ac:	000b3e30 	.word	0x000b3e30
200806b0:	000b3e30 	.word	0x000b3e30
200806b4:	000b3e03 	.word	0x000b3e03
200806b8:	000b3e30 	.word	0x000b3e30
200806bc:	000bf230 	.word	0x000bf230
200806c0:	000b3e30 	.word	0x000b3e30
200806c4:	000bf203 	.word	0x000bf203
200806c8:	000b3e30 	.word	0x000b3e30
200806cc:	000b3e30 	.word	0x000b3e30
200806d0:	000b3e03 	.word	0x000b3e03
200806d4:	000b3e03 	.word	0x000b3e03
200806d8:	000b3e03 	.word	0x000b3e03
200806dc:	000bf230 	.word	0x000bf230
200806e0:	000b3e03 	.word	0x000b3e03
200806e4:	000bf203 	.word	0x000bf203
200806e8:	000b3e03 	.word	0x000b3e03
200806ec:	000b3e30 	.word	0x000b3e30
200806f0:	000bf230 	.word	0x000bf230
200806f4:	000b3e03 	.word	0x000b3e03
200806f8:	000bf230 	.word	0x000bf230
200806fc:	000bf230 	.word	0x000bf230
20080700:	000bf230 	.word	0x000bf230
20080704:	000bf203 	.word	0x000bf203
20080708:	000bf230 	.word	0x000bf230
2008070c:	000b3e30 	.word	0x000b3e30
20080710:	000bf203 	.word	0x000bf203
20080714:	000b3e03 	.word	0x000b3e03
20080718:	000bf203 	.word	0x000bf203
2008071c:	000bf230 	.word	0x000bf230
20080720:	000bf203 	.word	0x000bf203
20080724:	000bf203 	.word	0x000bf203
20080728:	000bf203 	.word	0x000bf203
2008072c:	000bf203 	.word	0x000bf203
20080730:	000bf203 	.word	0x000bf203
20080734:	000bf103 	.word	0x000bf103
20080738:	000bf203 	.word	0x000bf203
2008073c:	0007f203 	.word	0x0007f203
20080740:	000bf203 	.word	0x000bf203
20080744:	0007f103 	.word	0x0007f103
20080748:	000bf203 	.word	0x000bf203
2008074c:	000bf203 	.word	0x000bf203
20080750:	000bf103 	.word	0x000bf103
20080754:	000bf103 	.word	0x000bf103
20080758:	000bf103 	.word	0x000bf103
2008075c:	0007f203 	.word	0x0007f203
20080760:	000bf103 	.word	0x000bf103
20080764:	0007f103 	.word	0x0007f103
20080768:	000bf103 	.word	0x000bf103
2008076c:	000bf203 	.word	0x000bf203
20080770:	0007f203 	.word	0x0007f203
20080774:	000bf103 	.word	0x000bf103
20080778:	0007f203 	.word	0x0007f203
2008077c:	0007f203 	.word	0x0007f203
20080780:	0007f203 	.word	0x0007f203
20080784:	0007f103 	.word	0x0007f103
20080788:	0007f203 	.word	0x0007f203
2008078c:	000bf203 	.word	0x000bf203
20080790:	0007f103 	.word	0x0007f103
20080794:	000bf103 	.word	0x000bf103
20080798:	0007f103 	.word	0x0007f103
2008079c:	0007f203 	.word	0x0007f203
200807a0:	0007f103 	.word	0x0007f103
200807a4:	0007f103 	.word	0x0007f103
200807a8:	0007f103 	.word	0x0007f103
200807ac:	000bf203 	.word	0x000bf203
200807b0:	000bf203 	.word	0x000bf203
200807b4:	000bf130 	.word	0x000bf130
200807b8:	000bf203 	.word	0x000bf203
200807bc:	00073e03 	.word	0x00073e03
200807c0:	000bf203 	.word	0x000bf203
200807c4:	00073d30 	.word	0x00073d30
200807c8:	000bf203 	.word	0x000bf203
200807cc:	000bf203 	.word	0x000bf203
200807d0:	000bf130 	.word	0x000bf130
200807d4:	000bf130 	.word	0x000bf130
200807d8:	000bf130 	.word	0x000bf130
200807dc:	00073e03 	.word	0x00073e03
200807e0:	000bf130 	.word	0x000bf130
200807e4:	00073d30 	.word	0x00073d30
200807e8:	000bf130 	.word	0x000bf130
200807ec:	000bf203 	.word	0x000bf203
200807f0:	00073e03 	.word	0x00073e03
200807f4:	000bf130 	.word	0x000bf130
200807f8:	00073e03 	.word	0x00073e03
200807fc:	00073e03 	.word	0x00073e03
20080800:	00073e03 	.word	0x00073e03
20080804:	00073d30 	.word	0x00073d30
20080808:	00073e03 	.word	0x00073e03
2008080c:	000bf203 	.word	0x000bf203
20080810:	00073d30 	.word	0x00073d30
20080814:	000bf130 	.word	0x000bf130
20080818:	00073d30 	.word	0x00073d30
2008081c:	00073e03 	.word	0x00073e03
20080820:	00073d30 	.word	0x00073d30
20080824:	00073d30 	.word	0x00073d30
20080828:	00073d30 	.word	0x00073d30
2008082c:	000bf203 	.word	0x000bf203
20080830:	000bf203 	.word	0x000bf203
20080834:	000bf230 	.word	0x000bf230
20080838:	000bf203 	.word	0x000bf203
2008083c:	000b3e03 	.word	0x000b3e03
20080840:	000bf203 	.word	0x000bf203
20080844:	000b3e30 	.word	0x000b3e30
20080848:	000bf203 	.word	0x000bf203
2008084c:	000bf203 	.word	0x000bf203
20080850:	000bf230 	.word	0x000bf230
20080854:	000bf230 	.word	0x000bf230
20080858:	000bf230 	.word	0x000bf230
2008085c:	000b3e03 	.word	0x000b3e03
20080860:	000bf230 	.word	0x000bf230
20080864:	000b3e30 	.word	0x000b3e30
20080868:	000bf230 	.word	0x000bf230
2008086c:	000bf203 	.word	0x000bf203
20080870:	000b3e03 	.word	0x000b3e03
20080874:	000bf230 	.word	0x000bf230
20080878:	000b3e03 	.word	0x000b3e03
2008087c:	000b3e03 	.word	0x000b3e03
20080880:	000b3e03 	.word	0x000b3e03
20080884:	000b3e30 	.word	0x000b3e30
20080888:	000b3e03 	.word	0x000b3e03
2008088c:	000bf203 	.word	0x000bf203
20080890:	000b3e30 	.word	0x000b3e30
20080894:	000bf230 	.word	0x000bf230
20080898:	000b3e30 	.word	0x000b3e30
2008089c:	000b3e03 	.word	0x000b3e03
200808a0:	000b3e30 	.word	0x000b3e30
200808a4:	000b3e30 	.word	0x000b3e30
200808a8:	000b3e30 	.word	0x000b3e30
200808ac:	000bf203 	.word	0x000bf203
200808b0:	000bf203 	.word	0x000bf203
200808b4:	000bf203 	.word	0x000bf203
200808b8:	000bf203 	.word	0x000bf203
200808bc:	000bf203 	.word	0x000bf203
200808c0:	000bf203 	.word	0x000bf203
200808c4:	000bf203 	.word	0x000bf203
200808c8:	000bf203 	.word	0x000bf203
200808cc:	000bf203 	.word	0x000bf203
200808d0:	000bf203 	.word	0x000bf203
200808d4:	000bf203 	.word	0x000bf203
200808d8:	000bf203 	.word	0x000bf203
200808dc:	000bf203 	.word	0x000bf203
200808e0:	000bf203 	.word	0x000bf203
200808e4:	000bf203 	.word	0x000bf203
200808e8:	000bf203 	.word	0x000bf203
200808ec:	000bf203 	.word	0x000bf203
200808f0:	000bf203 	.word	0x000bf203
200808f4:	000bf203 	.word	0x000bf203
200808f8:	000bf203 	.word	0x000bf203
200808fc:	000bf203 	.word	0x000bf203
20080900:	000bf203 	.word	0x000bf203
20080904:	000bf203 	.word	0x000bf203
20080908:	000bf203 	.word	0x000bf203
2008090c:	000bf203 	.word	0x000bf203
20080910:	000bf203 	.word	0x000bf203
20080914:	000bf203 	.word	0x000bf203
20080918:	000bf203 	.word	0x000bf203
2008091c:	000bf203 	.word	0x000bf203
20080920:	000bf203 	.word	0x000bf203
20080924:	000bf203 	.word	0x000bf203
20080928:	000bf203 	.word	0x000bf203
